       Line      Address       Opcode      Label             DisAssy          
       1     0000          118A                    BCF PCLATH, 0x3            
       2     0001          120A                    BCF PCLATH, 0x4            
       3     0002          28CC                    GOTO 0xCC                  
       4     0003          3FFF                    ADDLW 0xFF                 
       5     0004          00A0                    MOVWF 0x20                 
       6     0005          0E03                    SWAPF STATUS, W            
       7     0006          1283                    BCF STATUS, 0x5            
       8     0007          00A1                    MOVWF 0x21                 
       9     0008          0E0A                    SWAPF PCLATH, W            
      10     0009          00CC                    MOVWF 0x4C                 
      11     000A          018A                    CLRF PCLATH                
      12     000B          1D0C                    BTFSS PIR1, 0x2            
      13     000C          2813                    GOTO 0x13                  
      14     000D          3010                    MOVLW 0x10                 
      15     000E          0686                    XORWF PORTB, F             
      16     000F          018F                    CLRF TMR1H                 
      17     0010          018E                    CLRF TMR1                  
      18     0011          110C                    BCF PIR1, 0x2              
      19     0012          28C4                    GOTO 0xC4                  
      20     0013          1C8C                    BTFSS PIR1, 0x1            
      21     0014          2878                    GOTO 0x78                  
      22     0015          1683                    BSF STATUS, 0x5            
      23     0016          1CAD                    BTFSS 0x2D, 0x1            
      24     0017          281E                    GOTO 0x1E                  
      25     0018          0BAB                    DECFSZ 0x2B, F             
      26     0019          286E                    GOTO 0x6E                  
      27     001A          0BAC                    DECFSZ 0x2C, F             
      28     001B          286E                    GOTO 0x6E                  
      29     001C          142D                    BSF 0x2D, 0x0              
      30     001D          286E                    GOTO 0x6E                  
      31     001E          1D5E                    BTFSS 0x5E, 0x2            
      32     001F          2825                    GOTO 0x25                  
      33     0020          0BAB                    DECFSZ 0x2B, F             
      34     0021          2825                    GOTO 0x25                  
      35     0022          0BAC                    DECFSZ 0x2C, F             
      36     0023          2825                    GOTO 0x25                  
      37     0024          16DE                    BSF 0x5E, 0x5              
      38     0025          1CDF                    BTFSS 0x5F, 0x1            
      39     0026          282F                    GOTO 0x2F                  
      40     0027          0BE0                    DECFSZ 0x60, F             
      41     0028          282F                    GOTO 0x2F                  
      42     0029          3011                    MOVLW 0x11                 
      43     002A          00E0                    MOVWF 0x60                 
      44     002B          3020                    MOVLW 0x20                 
      45     002C          0686                    XORWF PORTB, F             
      46     002D          3080                    MOVLW 0x80                 
      47     002E          0686                    XORWF PORTB, F             
      48     002F          1283                    BCF STATUS, 0x5            
      49     0030          1D0C                    BTFSS PIR1, 0x2            
      50     0031          2837                    GOTO 0x37                  
      51     0032          3010                    MOVLW 0x10                 
      52     0033          0686                    XORWF PORTB, F             
      53     0034          018F                    CLRF TMR1H                 
      54     0035          018E                    CLRF TMR1                  
      55     0036          110C                    BCF PIR1, 0x2              
      56     0037          1683                    BSF STATUS, 0x5            
      57     0038          0BA6                    DECFSZ 0x26, F             
      58     0039          286E                    GOTO 0x6E                  
      59     003A          10A7                    BCF 0x27, 0x1              
      60     003B          1827                    BTFSC 0x27, 0x0            
      61     003C          2868                    GOTO 0x68                  
      62     003D          19A7                    BTFSC 0x27, 0x3            
      63     003E          2851                    GOTO 0x51                  
      64     003F          1683                    BSF STATUS, 0x5            
      65     0040          01A7                    CLRF 0x27                  
      66     0041          1283                    BCF STATUS, 0x5            
      67     0042          158A                    BSF PCLATH, 0x3            
      68     0043          120A                    BCF PCLATH, 0x4            
      69     0044          26A3                    CALL 0x6A3                 
      70     0045          118A                    BCF PCLATH, 0x3            
      71     0046          120A                    BCF PCLATH, 0x4            
      72     0047          1683                    BSF STATUS, 0x5            
      73     0048          1D5E                    BTFSS 0x5E, 0x2            
      74     0049          284C                    GOTO 0x4C                  
      75     004A          1283                    BCF STATUS, 0x5            
      76     004B          286E                    GOTO 0x6E                  
      77     004C          1683                    BSF STATUS, 0x5            
      78     004D          1164                    BCF 0x64, 0x2              
      79     004E          1283                    BCF STATUS, 0x5            
      80     004F          1112                    BCF T2CON, 0x2             
      81     0050          286E                    GOTO 0x6E                  
      82     0051          1283                    BCF STATUS, 0x5            
      83     0052          1D0C                    BTFSS PIR1, 0x2            
      84     0053          2859                    GOTO 0x59                  
      85     0054          3010                    MOVLW 0x10                 
      86     0055          0686                    XORWF PORTB, F             
      87     0056          018F                    CLRF TMR1H                 
      88     0057          018E                    CLRF TMR1                  
      89     0058          110C                    BCF PIR1, 0x2              
      90     0059          1683                    BSF STATUS, 0x5            
      91     005A          0AAA                    INCF 0x2A, F               
      92     005B          3004                    MOVLW 0x4                  
      93     005C          022A                    SUBWF 0x2A, W              
      94     005D          1903                    BTFSC STATUS, 0x2          
      95     005E          283F                    GOTO 0x3F                  
      96     005F          082A                    MOVF 0x2A, W               
      97     0060          3903                    ANDLW 0x3                  
      98     0061          216E                    CALL 0x16E                 
      99     0062          158A                    BSF PCLATH, 0x3            
     100     0063          120A                    BCF PCLATH, 0x4            
     101     0064          2683                    CALL 0x683                 
     102     0065          118A                    BCF PCLATH, 0x3            
     103     0066          120A                    BCF PCLATH, 0x4            
     104     0067          286E                    GOTO 0x6E                  
     105     0068          1283                    BCF STATUS, 0x5            
     106     0069          158A                    BSF PCLATH, 0x3            
     107     006A          120A                    BCF PCLATH, 0x4            
     108     006B          265A                    CALL 0x65A                 
     109     006C          118A                    BCF PCLATH, 0x3            
     110     006D          120A                    BCF PCLATH, 0x4            
     111     006E          1283                    BCF STATUS, 0x5            
     112     006F          1D0C                    BTFSS PIR1, 0x2            
     113     0070          2876                    GOTO 0x76                  
     114     0071          3010                    MOVLW 0x10                 
     115     0072          0686                    XORWF PORTB, F             
     116     0073          018F                    CLRF TMR1H                 
     117     0074          018E                    CLRF TMR1                  
     118     0075          110C                    BCF PIR1, 0x2              
     119     0076          108C                    BCF PIR1, 0x1              
     120     0077          28C4                    GOTO 0xC4                  
     121     0078          0FC4                    INCFSZ 0x44, F             
     122     0079          287B                    GOTO 0x7B                  
     123     007A          0AC5                    INCF 0x45, F               
     124     007B          1D0C                    BTFSS PIR1, 0x2            
     125     007C          2882                    GOTO 0x82                  
     126     007D          3010                    MOVLW 0x10                 
     127     007E          0686                    XORWF PORTB, F             
     128     007F          018F                    CLRF TMR1H                 
     129     0080          018E                    CLRF TMR1                  
     130     0081          110C                    BCF PIR1, 0x2              
     131     0082          19A4                    BTFSC 0x24, 0x3            
     132     0083          28AA                    GOTO 0xAA                  
     133     0084          1923                    BTFSC 0x23, 0x2            
     134     0085          2888                    GOTO 0x88                  
     135     0086          1706                    BSF PORTB, 0x6             
     136     0087          289A                    GOTO 0x9A                  
     137     0088          1D0C                    BTFSS PIR1, 0x2            
     138     0089          288F                    GOTO 0x8F                  
     139     008A          3010                    MOVLW 0x10                 
     140     008B          0686                    XORWF PORTB, F             
     141     008C          018F                    CLRF TMR1H                 
     142     008D          018E                    CLRF TMR1                  
     143     008E          110C                    BCF PIR1, 0x2              
     144     008F          1683                    BSF STATUS, 0x5            
     145     0090          1932                    BTFSC 0x32, 0x2            
     146     0091          289A                    GOTO 0x9A                  
     147     0092          1BDE                    BTFSC 0x5E, 0x7            
     148     0093          289A                    GOTO 0x9A                  
     149     0094          1283                    BCF STATUS, 0x5            
     150     0095          3040                    MOVLW 0x40                 
     151     0096          1A22                    BTFSC 0x22, 0x4            
     152     0097          0686                    XORWF PORTB, F             
     153     0098          1222                    BCF 0x22, 0x4              
     154     0099          28A0                    GOTO 0xA0                  
     155     009A          1283                    BCF STATUS, 0x5            
     156     009B          1922                    BTFSC 0x22, 0x2            
     157     009C          289F                    GOTO 0x9F                  
     158     009D          1706                    BSF PORTB, 0x6             
     159     009E          28A0                    GOTO 0xA0                  
     160     009F          1306                    BCF PORTB, 0x6             
     161     00A0          18A2                    BTFSC 0x22, 0x1            
     162     00A1          28A4                    GOTO 0xA4                  
     163     00A2          1786                    BSF PORTB, 0x7             
     164     00A3          28A5                    GOTO 0xA5                  
     165     00A4          1386                    BCF PORTB, 0x7             
     166     00A5          1822                    BTFSC 0x22, 0x0            
     167     00A6          28A9                    GOTO 0xA9                  
     168     00A7          1686                    BSF PORTB, 0x5             
     169     00A8          28AA                    GOTO 0xAA                  
     170     00A9          1286                    BCF PORTB, 0x5             
     171     00AA          1D0C                    BTFSS PIR1, 0x2            
     172     00AB          28B1                    GOTO 0xB1                  
     173     00AC          3010                    MOVLW 0x10                 
     174     00AD          0686                    XORWF PORTB, F             
     175     00AE          018F                    CLRF TMR1H                 
     176     00AF          018E                    CLRF TMR1                  
     177     00B0          110C                    BCF PIR1, 0x2              
     178     00B1          1DA2                    BTFSS 0x22, 0x3            
     179     00B2          28BE                    GOTO 0xBE                  
     180     00B3          300F                    MOVLW 0xF                  
     181     00B4          1683                    BSF STATUS, 0x5            
     182     00B5          0527                    ANDWF 0x27, W              
     183     00B6          1D03                    BTFSS STATUS, 0x2          
     184     00B7          28BE                    GOTO 0xBE                  
     185     00B8          1283                    BCF STATUS, 0x5            
     186     00B9          158A                    BSF PCLATH, 0x3            
     187     00BA          120A                    BCF PCLATH, 0x4            
     188     00BB          2665                    CALL 0x665                 
     189     00BC          118A                    BCF PCLATH, 0x3            
     190     00BD          120A                    BCF PCLATH, 0x4            
     191     00BE          110B                    BCF INTCON, 0x2            
     192     00BF          168B                    BSF INTCON, 0x5            
     193     00C0          1683                    BSF STATUS, 0x5            
     194     00C1          150C                    BSF PIR1, 0x2              
     195     00C2          148C                    BSF PIR1, 0x1              
     196     00C3          1283                    BCF STATUS, 0x5            
     197     00C4          1283                    BCF STATUS, 0x5            
     198     00C5          0E4C                    SWAPF 0x4C, W              
     199     00C6          008A                    MOVWF PCLATH               
     200     00C7          0E21                    SWAPF 0x21, W              
     201     00C8          0083                    MOVWF STATUS               
     202     00C9          0EA0                    SWAPF 0x20, F              
     203     00CA          0E20                    SWAPF 0x20, W              
     204     00CB          0009                    RETFIE                     
     205     00CC          1283                    BCF STATUS, 0x5            
     206     00CD          3040                    MOVLW 0x40                 
     207     00CE          00A2                    MOVWF 0x22                 
     208     00CF          01A5                    CLRF 0x25                  
     209     00D0          1683                    BSF STATUS, 0x5            
     210     00D1          01AD                    CLRF 0x2D                  
     211     00D2          01A7                    CLRF 0x27                  
     212     00D3          1283                    BCF STATUS, 0x5            
     213     00D4          158A                    BSF PCLATH, 0x3            
     214     00D5          120A                    BCF PCLATH, 0x4            
     215     00D6          2855                    GOTO 0x55                  
     216     00D7          3018                    MOVLW 0x18                 
     217     00D8          00C1                    MOVWF 0x41                 
     218     00D9          300E                    MOVLW 0xE                  
     219     00DA          118A                    BCF PCLATH, 0x3            
     220     00DB          160A                    BSF PCLATH, 0x4            
     221     00DC          23BF                    CALL 0x3BF                 
     222     00DD          118A                    BCF PCLATH, 0x3            
     223     00DE          120A                    BCF PCLATH, 0x4            
     224     00DF          300B                    MOVLW 0xB                  
     225     00E0          00C1                    MOVWF 0x41                 
     226     00E1          3007                    MOVLW 0x7                  
     227     00E2          118A                    BCF PCLATH, 0x3            
     228     00E3          160A                    BSF PCLATH, 0x4            
     229     00E4          23CB                    CALL 0x3CB                 
     230     00E5          118A                    BCF PCLATH, 0x3            
     231     00E6          120A                    BCF PCLATH, 0x4            
     232     00E7          3040                    MOVLW 0x40                 
     233     00E8          00A3                    MOVWF 0x23                 
     234     00E9          01A4                    CLRF 0x24                  
     235     00EA          3040                    MOVLW 0x40                 
     236     00EB          00A6                    MOVWF 0x26                 
     237     00EC          01CF                    CLRF 0x4F                  
     238     00ED          118A                    BCF PCLATH, 0x3            
     239     00EE          160A                    BSF PCLATH, 0x4            
     240     00EF          2668                    CALL 0x668                 
     241     00F0          118A                    BCF PCLATH, 0x3            
     242     00F1          120A                    BCF PCLATH, 0x4            
     243     00F2          3059                    MOVLW 0x59                 
     244     00F3          00C1                    MOVWF 0x41                 
     245     00F4          3000                    MOVLW 0x0                  
     246     00F5          118A                    BCF PCLATH, 0x3            
     247     00F6          160A                    BSF PCLATH, 0x4            
     248     00F7          23B9                    CALL 0x3B9                 
     249     00F8          118A                    BCF PCLATH, 0x3            
     250     00F9          120A                    BCF PCLATH, 0x4            
     251     00FA          118A                    BCF PCLATH, 0x3            
     252     00FB          160A                    BSF PCLATH, 0x4            
     253     00FC          2371                    CALL 0x371                 
     254     00FD          118A                    BCF PCLATH, 0x3            
     255     00FE          120A                    BCF PCLATH, 0x4            
     256     00FF          118A                    BCF PCLATH, 0x3            
     257     0100          160A                    BSF PCLATH, 0x4            
     258     0101          2607                    CALL 0x607                 
     259     0102          118A                    BCF PCLATH, 0x3            
     260     0103          120A                    BCF PCLATH, 0x4            
     261     0104          118A                    BCF PCLATH, 0x3            
     262     0105          160A                    BSF PCLATH, 0x4            
     263     0106          2499                    CALL 0x499                 
     264     0107          118A                    BCF PCLATH, 0x3            
     265     0108          120A                    BCF PCLATH, 0x4            
     266     0109          278B                    CALL 0x78B                 
     267     010A          3006                    MOVLW 0x6                  
     268     010B          00C1                    MOVWF 0x41                 
     269     010C          300A                    MOVLW 0xA                  
     270     010D          2792                    CALL 0x792                 
     271     010E          2798                    CALL 0x798                 
     272     010F          168B                    BSF INTCON, 0x5            
     273     0110          1683                    BSF STATUS, 0x5            
     274     0111          150C                    BSF PIR1, 0x2              
     275     0112          148C                    BSF PIR1, 0x1              
     276     0113          1283                    BCF STATUS, 0x5            
     277     0114          21E2                    CALL 0x1E2                 
     278     0115          118A                    BCF PCLATH, 0x3            
     279     0116          160A                    BSF PCLATH, 0x4            
     280     0117          2000                    CALL 0x0                   
     281     0118          118A                    BCF PCLATH, 0x3            
     282     0119          120A                    BCF PCLATH, 0x4            
     283     011A          271E                    CALL 0x71E                 
     284     011B          292F                    GOTO 0x12F                 
     285     011C          1283                    BCF STATUS, 0x5            
     286     011D          168B                    BSF INTCON, 0x5            
     287     011E          1683                    BSF STATUS, 0x5            
     288     011F          150C                    BSF PIR1, 0x2              
     289     0120          148C                    BSF PIR1, 0x1              
     290     0121          1283                    BCF STATUS, 0x5            
     291     0122          1523                    BSF 0x23, 0x2              
     292     0123          292F                    GOTO 0x12F                 
     293     0124          1283                    BCF STATUS, 0x5            
     294     0125          168B                    BSF INTCON, 0x5            
     295     0126          1683                    BSF STATUS, 0x5            
     296     0127          150C                    BSF PIR1, 0x2              
     297     0128          148C                    BSF PIR1, 0x1              
     298     0129          1283                    BCF STATUS, 0x5            
     299     012A          118A                    BCF PCLATH, 0x3            
     300     012B          160A                    BSF PCLATH, 0x4            
     301     012C          2645                    CALL 0x645                 
     302     012D          118A                    BCF PCLATH, 0x3            
     303     012E          120A                    BCF PCLATH, 0x4            
     304     012F          1283                    BCF STATUS, 0x5            
     305     0130          0064                    CLRWDT                     
     306     0131          118A                    BCF PCLATH, 0x3            
     307     0132          160A                    BSF PCLATH, 0x4            
     308     0133          2000                    CALL 0x0                   
     309     0134          118A                    BCF PCLATH, 0x3            
     310     0135          120A                    BCF PCLATH, 0x4            
     311     0136          2728                    CALL 0x728                 
     312     0137          158A                    BSF PCLATH, 0x3            
     313     0138          120A                    BCF PCLATH, 0x4            
     314     0139          2440                    CALL 0x440                 
     315     013A          118A                    BCF PCLATH, 0x3            
     316     013B          120A                    BCF PCLATH, 0x4            
     317     013C          1283                    BCF STATUS, 0x5            
     318     013D          118A                    BCF PCLATH, 0x3            
     319     013E          160A                    BSF PCLATH, 0x4            
     320     013F          2544                    CALL 0x544                 
     321     0140          118A                    BCF PCLATH, 0x3            
     322     0141          120A                    BCF PCLATH, 0x4            
     323     0142          2295                    CALL 0x295                 
     324     0143          118A                    BCF PCLATH, 0x3            
     325     0144          160A                    BSF PCLATH, 0x4            
     326     0145          221F                    CALL 0x21F                 
     327     0146          118A                    BCF PCLATH, 0x3            
     328     0147          120A                    BCF PCLATH, 0x4            
     329     0148          1283                    BCF STATUS, 0x5            
     330     0149          1A23                    BTFSC 0x23, 0x4            
     331     014A          2956                    GOTO 0x156                 
     332     014B          1683                    BSF STATUS, 0x5            
     333     014C          185E                    BTFSC 0x5E, 0x0            
     334     014D          2958                    GOTO 0x158                 
     335     014E          1283                    BCF STATUS, 0x5            
     336     014F          1DA2                    BTFSS 0x22, 0x3            
     337     0150          2956                    GOTO 0x156                 
     338     0151          1683                    BSF STATUS, 0x5            
     339     0152          0BE8                    DECFSZ 0x68, F             
     340     0153          2958                    GOTO 0x158                 
     341     0154          300A                    MOVLW 0xA                  
     342     0155          00E8                    MOVWF 0x68                 
     343     0156          1283                    BCF STATUS, 0x5            
     344     0157          2183                    CALL 0x183                 
     345     0158          1283                    BCF STATUS, 0x5            
     346     0159          26FE                    CALL 0x6FE                 
     347     015A          1D24                    BTFSS 0x24, 0x2            
     348     015B          2962                    GOTO 0x162                 
     349     015C          118A                    BCF PCLATH, 0x3            
     350     015D          160A                    BSF PCLATH, 0x4            
     351     015E          218C                    CALL 0x18C                 
     352     015F          118A                    BCF PCLATH, 0x3            
     353     0160          120A                    BCF PCLATH, 0x4            
     354     0161          292F                    GOTO 0x12F                 
     355     0162          118A                    BCF PCLATH, 0x3            
     356     0163          160A                    BSF PCLATH, 0x4            
     357     0164          2265                    CALL 0x265                 
     358     0165          118A                    BCF PCLATH, 0x3            
     359     0166          120A                    BCF PCLATH, 0x4            
     360     0167          2264                    CALL 0x264                 
     361     0168          118A                    BCF PCLATH, 0x3            
     362     0169          160A                    BSF PCLATH, 0x4            
     363     016A          2550                    CALL 0x550                 
     364     016B          118A                    BCF PCLATH, 0x3            
     365     016C          120A                    BCF PCLATH, 0x4            
     366     016D          292F                    GOTO 0x12F                 
     367     016E          1683                    BSF STATUS, 0x5            
     368     016F          1A27                    BTFSC 0x27, 0x4            
     369     0170          297A                    GOTO 0x17A                 
     370     0171          3001                    MOVLW 0x1                  
     371     0172          022A                    SUBWF 0x2A, W              
     372     0173          1903                    BTFSC STATUS, 0x2          
     373     0174          3425                    RETLW 0x25                 
     374     0175          3002                    MOVLW 0x2                  
     375     0176          022A                    SUBWF 0x2A, W              
     376     0177          1903                    BTFSC STATUS, 0x2          
     377     0178          340C                    RETLW 0xC                  
     378     0179          3406                    RETLW 0x6                  
     379     017A          3001                    MOVLW 0x1                  
     380     017B          022A                    SUBWF 0x2A, W              
     381     017C          1903                    BTFSC STATUS, 0x2          
     382     017D          3410                    RETLW 0x10                 
     383     017E          3002                    MOVLW 0x2                  
     384     017F          022A                    SUBWF 0x2A, W              
     385     0180          1903                    BTFSC STATUS, 0x2          
     386     0181          3412                    RETLW 0x12                 
     387     0182          3414                    RETLW 0x14                 
     388     0183          1806                    BTFSC PORTB, 0x0           
     389     0184          292F                    GOTO 0x12F                 
     390     0185          128B                    BCF INTCON, 0x5            
     391     0186          1683                    BSF STATUS, 0x5            
     392     0187          110C                    BCF PIR1, 0x2              
     393     0188          108C                    BCF PIR1, 0x1              
     394     0189          1283                    BCF STATUS, 0x5            
     395     018A          118A                    BCF PCLATH, 0x3            
     396     018B          160A                    BSF PCLATH, 0x4            
     397     018C          25AF                    CALL 0x5AF                 
     398     018D          118A                    BCF PCLATH, 0x3            
     399     018E          120A                    BCF PCLATH, 0x4            
     400     018F          1205                    BCF PORTA, 0x4             
     401     0190          277B                    CALL 0x77B                 
     402     0191          1605                    BSF PORTA, 0x4             
     403     0192          118A                    BCF PCLATH, 0x3            
     404     0193          160A                    BSF PCLATH, 0x4            
     405     0194          258F                    CALL 0x58F                 
     406     0195          118A                    BCF PCLATH, 0x3            
     407     0196          120A                    BCF PCLATH, 0x4            
     408     0197          118A                    BCF PCLATH, 0x3            
     409     0198          160A                    BSF PCLATH, 0x4            
     410     0199          2593                    CALL 0x593                 
     411     019A          118A                    BCF PCLATH, 0x3            
     412     019B          120A                    BCF PCLATH, 0x4            
     413     019C          1806                    BTFSC PORTB, 0x0           
     414     019D          291C                    GOTO 0x11C                 
     415     019E          118A                    BCF PCLATH, 0x3            
     416     019F          160A                    BSF PCLATH, 0x4            
     417     01A0          2591                    CALL 0x591                 
     418     01A1          118A                    BCF PCLATH, 0x3            
     419     01A2          120A                    BCF PCLATH, 0x4            
     420     01A3          118A                    BCF PCLATH, 0x3            
     421     01A4          160A                    BSF PCLATH, 0x4            
     422     01A5          259A                    CALL 0x59A                 
     423     01A6          118A                    BCF PCLATH, 0x3            
     424     01A7          120A                    BCF PCLATH, 0x4            
     425     01A8          1806                    BTFSC PORTB, 0x0           
     426     01A9          2924                    GOTO 0x124                 
     427     01AA          118A                    BCF PCLATH, 0x3            
     428     01AB          160A                    BSF PCLATH, 0x4            
     429     01AC          258F                    CALL 0x58F                 
     430     01AD          118A                    BCF PCLATH, 0x3            
     431     01AE          120A                    BCF PCLATH, 0x4            
     432     01AF          118A                    BCF PCLATH, 0x3            
     433     01B0          160A                    BSF PCLATH, 0x4            
     434     01B1          258F                    CALL 0x58F                 
     435     01B2          118A                    BCF PCLATH, 0x3            
     436     01B3          120A                    BCF PCLATH, 0x4            
     437     01B4          2215                    CALL 0x215                 
     438     01B5          168B                    BSF INTCON, 0x5            
     439     01B6          1683                    BSF STATUS, 0x5            
     440     01B7          150C                    BSF PIR1, 0x2              
     441     01B8          148C                    BSF PIR1, 0x1              
     442     01B9          1283                    BCF STATUS, 0x5            
     443     01BA          1683                    BSF STATUS, 0x5            
     444     01BB          15DE                    BSF 0x5E, 0x3              
     445     01BC          1283                    BCF STATUS, 0x5            
     446     01BD          0008                    RETURN                     
     447     01BE          0064                    CLRWDT                     
     448     01BF          1806                    BTFSC PORTB, 0x0           
     449     01C0          29BE                    GOTO 0x1BE                 
     450     01C1          3040                    MOVLW 0x40                 
     451     01C2          128B                    BCF INTCON, 0x5            
     452     01C3          1683                    BSF STATUS, 0x5            
     453     01C4          110C                    BCF PIR1, 0x2              
     454     01C5          108C                    BCF PIR1, 0x1              
     455     01C6          1283                    BCF STATUS, 0x5            
     456     01C7          1205                    BCF PORTA, 0x4             
     457     01C8          2776                    CALL 0x776                 
     458     01C9          29D8                    GOTO 0x1D8                 
     459     01CA          0064                    CLRWDT                     
     460     01CB          1806                    BTFSC PORTB, 0x0           
     461     01CC          29CA                    GOTO 0x1CA                 
     462     01CD          1B77                    BTFSC 0x77, 0x6            
     463     01CE          275A                    CALL 0x75A                 
     464     01CF          128B                    BCF INTCON, 0x5            
     465     01D0          1683                    BSF STATUS, 0x5            
     466     01D1          110C                    BCF PIR1, 0x2              
     467     01D2          108C                    BCF PIR1, 0x1              
     468     01D3          1283                    BCF STATUS, 0x5            
     469     01D4          1205                    BCF PORTA, 0x4             
     470     01D5          2770                    CALL 0x770                 
     471     01D6          3040                    MOVLW 0x40                 
     472     01D7          29D8                    GOTO 0x1D8                 
     473     01D8          1605                    BSF PORTA, 0x4             
     474     01D9          21FF                    CALL 0x1FF                 
     475     01DA          3001                    MOVLW 0x1                  
     476     01DB          2724                    CALL 0x724                 
     477     01DC          168B                    BSF INTCON, 0x5            
     478     01DD          1683                    BSF STATUS, 0x5            
     479     01DE          150C                    BSF PIR1, 0x2              
     480     01DF          148C                    BSF PIR1, 0x1              
     481     01E0          1283                    BCF STATUS, 0x5            
     482     01E1          0008                    RETURN                     
     483     01E2          0064                    CLRWDT                     
     484     01E3          1806                    BTFSC PORTB, 0x0           
     485     01E4          29E2                    GOTO 0x1E2                 
     486     01E5          128B                    BCF INTCON, 0x5            
     487     01E6          1683                    BSF STATUS, 0x5            
     488     01E7          110C                    BCF PIR1, 0x2              
     489     01E8          108C                    BCF PIR1, 0x1              
     490     01E9          1283                    BCF STATUS, 0x5            
     491     01EA          1205                    BCF PORTA, 0x4             
     492     01EB          277E                    CALL 0x77E                 
     493     01EC          2774                    CALL 0x774                 
     494     01ED          1605                    BSF PORTA, 0x4             
     495     01EE          3043                    MOVLW 0x43                 
     496     01EF          00C1                    MOVWF 0x41                 
     497     01F0          308E                    MOVLW 0x8E                 
     498     01F1          2768                    CALL 0x768                 
     499     01F2          0000                    NOP                        
     500     01F3          2237                    CALL 0x237                 
     501     01F4          304D                    MOVLW 0x4D                 
     502     01F5          00C1                    MOVWF 0x41                 
     503     01F6          3001                    MOVLW 0x1                  
     504     01F7          2768                    CALL 0x768                 
     505     01F8          2237                    CALL 0x237                 
     506     01F9          168B                    BSF INTCON, 0x5            
     507     01FA          1683                    BSF STATUS, 0x5            
     508     01FB          150C                    BSF PIR1, 0x2              
     509     01FC          148C                    BSF PIR1, 0x1              
     510     01FD          1283                    BCF STATUS, 0x5            
     511     01FE          0008                    RETURN                     
     512     01FF          00B0                    MOVWF 0x30                 
     513     0200          1683                    BSF STATUS, 0x5            
     514     0201          1006                    BCF PORTB, 0x0             
     515     0202          3000                    MOVLW 0x0                  
     516     0203          0086                    MOVWF PORTB                
     517     0204          1283                    BCF STATUS, 0x5            
     518     0205          26CE                    CALL 0x6CE                 
     519     0206          1C60                    BTFSS 0x60, 0x0            
     520     0207          1006                    BCF PORTB, 0x0             
     521     0208          1860                    BTFSC 0x60, 0x0            
     522     0209          1406                    BSF PORTB, 0x0             
     523     020A          277F                    CALL 0x77F                 
     524     020B          2783                    CALL 0x783                 
     525     020C          25CC                    CALL 0x5CC                 
     526     020D          0BB0                    DECFSZ 0x30, F             
     527     020E          2A06                    GOTO 0x206                 
     528     020F          168B                    BSF INTCON, 0x5            
     529     0210          1683                    BSF STATUS, 0x5            
     530     0211          150C                    BSF PIR1, 0x2              
     531     0212          148C                    BSF PIR1, 0x1              
     532     0213          1283                    BCF STATUS, 0x5            
     533     0214          0008                    RETURN                     
     534     0215          3040                    MOVLW 0x40                 
     535     0216          00B0                    MOVWF 0x30                 
     536     0217          0C06                    RRF PORTB, W               
     537     0218          1C03                    BTFSS STATUS, 0x0          
     538     0219          1026                    BCF 0x26, 0x0              
     539     021A          1803                    BTFSC STATUS, 0x0          
     540     021B          1426                    BSF 0x26, 0x0              
     541     021C          118A                    BCF PCLATH, 0x3            
     542     021D          160A                    BSF PCLATH, 0x4            
     543     021E          258F                    CALL 0x58F                 
     544     021F          118A                    BCF PCLATH, 0x3            
     545     0220          120A                    BCF PCLATH, 0x4            
     546     0221          118A                    BCF PCLATH, 0x3            
     547     0222          160A                    BSF PCLATH, 0x4            
     548     0223          258F                    CALL 0x58F                 
     549     0224          118A                    BCF PCLATH, 0x3            
     550     0225          120A                    BCF PCLATH, 0x4            
     551     0226          118A                    BCF PCLATH, 0x3            
     552     0227          160A                    BSF PCLATH, 0x4            
     553     0228          258F                    CALL 0x58F                 
     554     0229          118A                    BCF PCLATH, 0x3            
     555     022A          120A                    BCF PCLATH, 0x4            
     556     022B          0C06                    RRF PORTB, W               
     557     022C          25CC                    CALL 0x5CC                 
     558     022D          118A                    BCF PCLATH, 0x3            
     559     022E          160A                    BSF PCLATH, 0x4            
     560     022F          258F                    CALL 0x58F                 
     561     0230          118A                    BCF PCLATH, 0x3            
     562     0231          120A                    BCF PCLATH, 0x4            
     563     0232          2772                    CALL 0x772                 
     564     0233          0BB0                    DECFSZ 0x30, F             
     565     0234          2A2B                    GOTO 0x22B                 
     566     0235          26C4                    CALL 0x6C4                 
     567     0236          0008                    RETURN                     
     568     0237          3040                    MOVLW 0x40                 
     569     0238          00B0                    MOVWF 0x30                 
     570     0239          0C06                    RRF PORTB, W               
     571     023A          1683                    BSF STATUS, 0x5            
     572     023B          25D3                    CALL 0x5D3                 
     573     023C          1283                    BCF STATUS, 0x5            
     574     023D          2776                    CALL 0x776                 
     575     023E          0BB0                    DECFSZ 0x30, F             
     576     023F          2A39                    GOTO 0x239                 
     577     0240          0008                    RETURN                     
     578     0241          1683                    BSF STATUS, 0x5            
     579     0242          119C                    BCF CCPR2H, 0x3            
     580     0243          1283                    BCF STATUS, 0x5            
     581     0244          2775                    CALL 0x775                 
     582     0245          1683                    BSF STATUS, 0x5            
     583     0246          081C                    MOVF CCPR2H, W             
     584     0247          1283                    BCF STATUS, 0x5            
     585     0248          3940                    ANDLW 0x40                 
     586     0249          1683                    BSF STATUS, 0x5            
     587     024A          1834                    BTFSC 0x34, 0x0            
     588     024B          3A40                    XORLW 0x40                 
     589     024C          1283                    BCF STATUS, 0x5            
     590     024D          0008                    RETURN                     
     591     024E          1683                    BSF STATUS, 0x5            
     592     024F          159C                    BSF CCPR2H, 0x3            
     593     0250          1283                    BCF STATUS, 0x5            
     594     0251          2775                    CALL 0x775                 
     595     0252          1683                    BSF STATUS, 0x5            
     596     0253          081C                    MOVF CCPR2H, W             
     597     0254          1283                    BCF STATUS, 0x5            
     598     0255          3940                    ANDLW 0x40                 
     599     0256          0008                    RETURN                     
     600     0257          1683                    BSF STATUS, 0x5            
     601     0258          119C                    BCF CCPR2H, 0x3            
     602     0259          1283                    BCF STATUS, 0x5            
     603     025A          2A5E                    GOTO 0x25E                 
     604     025B          1683                    BSF STATUS, 0x5            
     605     025C          159C                    BSF CCPR2H, 0x3            
     606     025D          1283                    BCF STATUS, 0x5            
     607     025E          2775                    CALL 0x775                 
     608     025F          1683                    BSF STATUS, 0x5            
     609     0260          081C                    MOVF CCPR2H, W             
     610     0261          1283                    BCF STATUS, 0x5            
     611     0262          3980                    ANDLW 0x80                 
     612     0263          0008                    RETURN                     
     613     0264          1FF7                    BTFSS 0x77, 0x7            
     614     0265          2924                    GOTO 0x124                 
     615     0266          1B77                    BTFSC 0x77, 0x6            
     616     0267          275A                    CALL 0x75A                 
     617     0268          1683                    BSF STATUS, 0x5            
     618     0269          083A                    MOVF 0x3A, W               
     619     026A          1283                    BCF STATUS, 0x5            
     620     026B          0276                    SUBWF 0x76, W              
     621     026C          1D03                    BTFSS STATUS, 0x2          
     622     026D          2924                    GOTO 0x124                 
     623     026E          1683                    BSF STATUS, 0x5            
     624     026F          083B                    MOVF 0x3B, W               
     625     0270          1283                    BCF STATUS, 0x5            
     626     0271          0277                    SUBWF 0x77, W              
     627     0272          1D03                    BTFSS STATUS, 0x2          
     628     0273          2924                    GOTO 0x124                 
     629     0274          1683                    BSF STATUS, 0x5            
     630     0275          1EB7                    BTFSS 0x37, 0x5            
     631     0276          2A79                    GOTO 0x279                 
     632     0277          1283                    BCF STATUS, 0x5            
     633     0278          0008                    RETURN                     
     634     0279          1683                    BSF STATUS, 0x5            
     635     027A          0837                    MOVF 0x37, W               
     636     027B          1283                    BCF STATUS, 0x5            
     637     027C          3910                    ANDLW 0x10                 
     638     027D          1903                    BTFSC STATUS, 0x2          
     639     027E          2A86                    GOTO 0x286                 
     640     027F          1AA3                    BTFSC 0x23, 0x5            
     641     0280          2A86                    GOTO 0x286                 
     642     0281          0875                    MOVF 0x75, W               
     643     0282          00F3                    MOVWF 0x73                 
     644     0283          0874                    MOVF 0x74, W               
     645     0284          00F2                    MOVWF 0x72                 
     646     0285          0008                    RETURN                     
     647     0286          1FA3                    BTFSS 0x23, 0x7            
     648     0287          0008                    RETURN                     
     649     0288          1683                    BSF STATUS, 0x5            
     650     0289          0838                    MOVF 0x38, W               
     651     028A          1283                    BCF STATUS, 0x5            
     652     028B          0274                    SUBWF 0x74, W              
     653     028C          1D03                    BTFSS STATUS, 0x2          
     654     028D          2924                    GOTO 0x124                 
     655     028E          1683                    BSF STATUS, 0x5            
     656     028F          0839                    MOVF 0x39, W               
     657     0290          1283                    BCF STATUS, 0x5            
     658     0291          0275                    SUBWF 0x75, W              
     659     0292          1D03                    BTFSS STATUS, 0x2          
     660     0293          2924                    GOTO 0x124                 
     661     0294          0008                    RETURN                     
     662     0295          1DA4                    BTFSS 0x24, 0x3            
     663     0296          0008                    RETURN                     
     664     0297          1683                    BSF STATUS, 0x5            
     665     0298          18DE                    BTFSC 0x5E, 0x1            
     666     0299          2A9C                    GOTO 0x29C                 
     667     029A          1D5E                    BTFSS 0x5E, 0x2            
     668     029B          2A9E                    GOTO 0x29E                 
     669     029C          1283                    BCF STATUS, 0x5            
     670     029D          0008                    RETURN                     
     671     029E          1AE4                    BTFSC 0x64, 0x5            
     672     029F          2A9C                    GOTO 0x29C                 
     673     02A0          1283                    BCF STATUS, 0x5            
     674     02A1          118A                    BCF PCLATH, 0x3            
     675     02A2          160A                    BSF PCLATH, 0x4            
     676     02A3          247C                    CALL 0x47C                 
     677     02A4          118A                    BCF PCLATH, 0x3            
     678     02A5          120A                    BCF PCLATH, 0x4            
     679     02A6          1683                    BSF STATUS, 0x5            
     680     02A7          185E                    BTFSC 0x5E, 0x0            
     681     02A8          2AB2                    GOTO 0x2B2                 
     682     02A9          1283                    BCF STATUS, 0x5            
     683     02AA          22D4                    CALL 0x2D4                 
     684     02AB          3C01                    SUBLW 0x1                  
     685     02AC          1D03                    BTFSS STATUS, 0x2          
     686     02AD          2AB2                    GOTO 0x2B2                 
     687     02AE          22C2                    CALL 0x2C2                 
     688     02AF          1803                    BTFSC STATUS, 0x0          
     689     02B0          2448                    CALL 0x448                 
     690     02B1          2A95                    GOTO 0x295                 
     691     02B2          158A                    BSF PCLATH, 0x3            
     692     02B3          120A                    BCF PCLATH, 0x4            
     693     02B4          260D                    CALL 0x60D                 
     694     02B5          118A                    BCF PCLATH, 0x3            
     695     02B6          120A                    BCF PCLATH, 0x4            
     696     02B7          158A                    BSF PCLATH, 0x3            
     697     02B8          120A                    BCF PCLATH, 0x4            
     698     02B9          261B                    CALL 0x61B                 
     699     02BA          118A                    BCF PCLATH, 0x3            
     700     02BB          120A                    BCF PCLATH, 0x4            
     701     02BC          158A                    BSF PCLATH, 0x3            
     702     02BD          120A                    BCF PCLATH, 0x4            
     703     02BE          2633                    CALL 0x633                 
     704     02BF          118A                    BCF PCLATH, 0x3            
     705     02C0          120A                    BCF PCLATH, 0x4            
     706     02C1          0008                    RETURN                     
     707     02C2          23FD                    CALL 0x3FD                 
     708     02C3          1D03                    BTFSS STATUS, 0x2          
     709     02C4          2AD2                    GOTO 0x2D2                 
     710     02C5          3002                    MOVLW 0x2                  
     711     02C6          008A                    MOVWF PCLATH               
     712     02C7          0877                    MOVF 0x77, W               
     713     02C8          3907                    ANDLW 0x7                  
     714     02C9          0782                    ADDWF PCL, F               
     715     02CA          2B1D                    GOTO 0x31D                 
     716     02CB          2B4A                    GOTO 0x34A                 
     717     02CC          2BEE                    GOTO 0x3EE                 
     718     02CD          2BA6                    GOTO 0x3A6                 
     719     02CE          2B9F                    GOTO 0x39F                 
     720     02CF          2BCC                    GOTO 0x3CC                 
     721     02D0          2C2B                    GOTO 0x42B                 
     722     02D1          240E                    CALL 0x40E                 
     723     02D2          1003                    BCF STATUS, 0x0            
     724     02D3          3400                    RETLW 0x0                  
     725     02D4          1683                    BSF STATUS, 0x5            
     726     02D5          1C67                    BTFSS 0x67, 0x0            
     727     02D6          2ADC                    GOTO 0x2DC                 
     728     02D7          1067                    BCF 0x67, 0x0              
     729     02D8          1283                    BCF STATUS, 0x5            
     730     02D9          3001                    MOVLW 0x1                  
     731     02DA          00A8                    MOVWF 0x28                 
     732     02DB          2AFB                    GOTO 0x2FB                 
     733     02DC          1283                    BCF STATUS, 0x5            
     734     02DD          2241                    CALL 0x241                 
     735     02DE          0064                    CLRWDT                     
     736     02DF          00A8                    MOVWF 0x28                 
     737     02E0          118A                    BCF PCLATH, 0x3            
     738     02E1          160A                    BSF PCLATH, 0x4            
     739     02E2          2376                    CALL 0x376                 
     740     02E3          118A                    BCF PCLATH, 0x3            
     741     02E4          120A                    BCF PCLATH, 0x4            
     742     02E5          1903                    BTFSC STATUS, 0x2          
     743     02E6          3400                    RETLW 0x0                  
     744     02E7          2241                    CALL 0x241                 
     745     02E8          02A8                    SUBWF 0x28, F              
     746     02E9          1903                    BTFSC STATUS, 0x2          
     747     02EA          2ADE                    GOTO 0x2DE                 
     748     02EB          118A                    BCF PCLATH, 0x3            
     749     02EC          160A                    BSF PCLATH, 0x4            
     750     02ED          247C                    CALL 0x47C                 
     751     02EE          118A                    BCF PCLATH, 0x3            
     752     02EF          120A                    BCF PCLATH, 0x4            
     753     02F0          2788                    CALL 0x788                 
     754     02F1          3025                    MOVLW 0x25                 
     755     02F2          00C1                    MOVWF 0x41                 
     756     02F3          3001                    MOVLW 0x1                  
     757     02F4          2792                    CALL 0x792                 
     758     02F5          2798                    CALL 0x798                 
     759     02F6          168B                    BSF INTCON, 0x5            
     760     02F7          1683                    BSF STATUS, 0x5            
     761     02F8          150C                    BSF PIR1, 0x2              
     762     02F9          148C                    BSF PIR1, 0x1              
     763     02FA          1283                    BCF STATUS, 0x5            
     764     02FB          2241                    CALL 0x241                 
     765     02FC          1D03                    BTFSS STATUS, 0x2          
     766     02FD          2ADE                    GOTO 0x2DE                 
     767     02FE          2788                    CALL 0x788                 
     768     02FF          3025                    MOVLW 0x25                 
     769     0300          00C1                    MOVWF 0x41                 
     770     0301          3001                    MOVLW 0x1                  
     771     0302          2792                    CALL 0x792                 
     772     0303          158A                    BSF PCLATH, 0x3            
     773     0304          120A                    BCF PCLATH, 0x4            
     774     0305          2DBC                    GOTO 0x5BC                 
     775     0306          3401                    RETLW 0x1                  
     776     0307          0064                    CLRWDT                     
     777     0308          1683                    BSF STATUS, 0x5            
     778     0309          16E4                    BSF 0x64, 0x5              
     779     030A          1283                    BCF STATUS, 0x5            
     780     030B          27B9                    CALL 0x7B9                 
     781     030C          168B                    BSF INTCON, 0x5            
     782     030D          1683                    BSF STATUS, 0x5            
     783     030E          150C                    BSF PIR1, 0x2              
     784     030F          148C                    BSF PIR1, 0x1              
     785     0310          1283                    BCF STATUS, 0x5            
     786     0311          1683                    BSF STATUS, 0x5            
     787     0312          12E4                    BCF 0x64, 0x5              
     788     0313          1283                    BCF STATUS, 0x5            
     789     0314          3094                    MOVLW 0x94                 
     790     0315          00C1                    MOVWF 0x41                 
     791     0316          3001                    MOVLW 0x1                  
     792     0317          2792                    CALL 0x792                 
     793     0318          2241                    CALL 0x241                 
     794     0319          1403                    BSF STATUS, 0x0            
     795     031A          1D03                    BTFSS STATUS, 0x2          
     796     031B          1003                    BCF STATUS, 0x0            
     797     031C          0008                    RETURN                     
     798     031D          3002                    MOVLW 0x2                  
     799     031E          23F2                    CALL 0x3F2                 
     800     031F          1D03                    BTFSS STATUS, 0x2          
     801     0320          2AD2                    GOTO 0x2D2                 
     802     0321          1F22                    BTFSS 0x22, 0x6            
     803     0322          2AD1                    GOTO 0x2D1                 
     804     0323          0876                    MOVF 0x76, W               
     805     0324          390F                    ANDLW 0xF                  
     806     0325          1903                    BTFSC STATUS, 0x2          
     807     0326          2B44                    GOTO 0x344                 
     808     0327          1683                    BSF STATUS, 0x5            
     809     0328          1564                    BSF 0x64, 0x2              
     810     0329          00A5                    MOVWF 0x25                 
     811     032A          00A6                    MOVWF 0x26                 
     812     032B          3C0F                    SUBLW 0xF                  
     813     032C          1903                    BTFSC STATUS, 0x2          
     814     032D          2B3D                    GOTO 0x33D                 
     815     032E          1283                    BCF STATUS, 0x5            
     816     032F          158A                    BSF PCLATH, 0x3            
     817     0330          120A                    BCF PCLATH, 0x4            
     818     0331          26AC                    CALL 0x6AC                 
     819     0332          118A                    BCF PCLATH, 0x3            
     820     0333          120A                    BCF PCLATH, 0x4            
     821     0334          1683                    BSF STATUS, 0x5            
     822     0335          158A                    BSF PCLATH, 0x3            
     823     0336          120A                    BCF PCLATH, 0x4            
     824     0337          2649                    CALL 0x649                 
     825     0338          118A                    BCF PCLATH, 0x3            
     826     0339          120A                    BCF PCLATH, 0x4            
     827     033A          1606                    BSF PORTB, 0x4             
     828     033B          1512                    BSF T2CON, 0x2             
     829     033C          2AD1                    GOTO 0x2D1                 
     830     033D          158A                    BSF PCLATH, 0x3            
     831     033E          120A                    BCF PCLATH, 0x4            
     832     033F          265A                    CALL 0x65A                 
     833     0340          118A                    BCF PCLATH, 0x3            
     834     0341          120A                    BCF PCLATH, 0x4            
     835     0342          1512                    BSF T2CON, 0x2             
     836     0343          2AD1                    GOTO 0x2D1                 
     837     0344          1683                    BSF STATUS, 0x5            
     838     0345          1164                    BCF 0x64, 0x2              
     839     0346          1027                    BCF 0x27, 0x0              
     840     0347          1283                    BCF STATUS, 0x5            
     841     0348          1512                    BSF T2CON, 0x2             
     842     0349          2AD1                    GOTO 0x2D1                 
     843     034A          3002                    MOVLW 0x2                  
     844     034B          23F2                    CALL 0x3F2                 
     845     034C          1D03                    BTFSS STATUS, 0x2          
     846     034D          2AD2                    GOTO 0x2D2                 
     847     034E          0876                    MOVF 0x76, W               
     848     034F          39E0                    ANDLW 0xE0                 
     849     0350          00A9                    MOVWF 0x29                 
     850     0351          23EA                    CALL 0x3EA                 
     851     0352          3003                    MOVLW 0x3                  
     852     0353          008A                    MOVWF PCLATH               
     853     0354          0876                    MOVF 0x76, W               
     854     0355          3907                    ANDLW 0x7                  
     855     0356          0782                    ADDWF PCL, F               
     856     0357          2B5F                    GOTO 0x35F                 
     857     0358          2B6A                    GOTO 0x36A                 
     858     0359          2B76                    GOTO 0x376                 
     859     035A          2B83                    GOTO 0x383                 
     860     035B          2B8D                    GOTO 0x38D                 
     861     035C          291C                    GOTO 0x11C                 
     862     035D          291C                    GOTO 0x11C                 
     863     035E          291C                    GOTO 0x11C                 
     864     035F          1F29                    BTFSS 0x29, 0x6            
     865     0360          2B64                    GOTO 0x364                 
     866     0361          1683                    BSF STATUS, 0x5            
     867     0362          1064                    BCF 0x64, 0x0              
     868     0363          1283                    BCF STATUS, 0x5            
     869     0364          0829                    MOVF 0x29, W               
     870     0365          3AFF                    XORLW 0xFF                 
     871     0366          05CF                    ANDWF 0x4F, F              
     872     0367          0829                    MOVF 0x29, W               
     873     0368          0486                    IORWF PORTB, F             
     874     0369          2AD1                    GOTO 0x2D1                 
     875     036A          0829                    MOVF 0x29, W               
     876     036B          00CF                    MOVWF 0x4F                 
     877     036C          0686                    XORWF PORTB, F             
     878     036D          306B                    MOVLW 0x6B                 
     879     036E          00C1                    MOVWF 0x41                 
     880     036F          3000                    MOVLW 0x0                  
     881     0370          118A                    BCF PCLATH, 0x3            
     882     0371          160A                    BSF PCLATH, 0x4            
     883     0372          23BF                    CALL 0x3BF                 
     884     0373          118A                    BCF PCLATH, 0x3            
     885     0374          120A                    BCF PCLATH, 0x4            
     886     0375          2AD1                    GOTO 0x2D1                 
     887     0376          1F29                    BTFSS 0x29, 0x6            
     888     0377          2B7B                    GOTO 0x37B                 
     889     0378          1683                    BSF STATUS, 0x5            
     890     0379          14E4                    BSF 0x64, 0x1              
     891     037A          1283                    BCF STATUS, 0x5            
     892     037B          0829                    MOVF 0x29, W               
     893     037C          04A4                    IORWF 0x24, F              
     894     037D          158A                    BSF PCLATH, 0x3            
     895     037E          120A                    BCF PCLATH, 0x4            
     896     037F          2618                    CALL 0x618                 
     897     0380          118A                    BCF PCLATH, 0x3            
     898     0381          120A                    BCF PCLATH, 0x4            
     899     0382          2AD1                    GOTO 0x2D1                 
     900     0383          1F29                    BTFSS 0x29, 0x6            
     901     0384          2B88                    GOTO 0x388                 
     902     0385          1683                    BSF STATUS, 0x5            
     903     0386          1464                    BSF 0x64, 0x0              
     904     0387          1283                    BCF STATUS, 0x5            
     905     0388          0829                    MOVF 0x29, W               
     906     0389          3AFF                    XORLW 0xFF                 
     907     038A          05CF                    ANDWF 0x4F, F              
     908     038B          0586                    ANDWF PORTB, F             
     909     038C          2AD1                    GOTO 0x2D1                 
     910     038D          0829                    MOVF 0x29, W               
     911     038E          0686                    XORWF PORTB, F             
     912     038F          300C                    MOVLW 0xC                  
     913     0390          00C1                    MOVWF 0x41                 
     914     0391          3000                    MOVLW 0x0                  
     915     0392          118A                    BCF PCLATH, 0x3            
     916     0393          160A                    BSF PCLATH, 0x4            
     917     0394          23B9                    CALL 0x3B9                 
     918     0395          118A                    BCF PCLATH, 0x3            
     919     0396          120A                    BCF PCLATH, 0x4            
     920     0397          118A                    BCF PCLATH, 0x3            
     921     0398          160A                    BSF PCLATH, 0x4            
     922     0399          2371                    CALL 0x371                 
     923     039A          118A                    BCF PCLATH, 0x3            
     924     039B          120A                    BCF PCLATH, 0x4            
     925     039C          0829                    MOVF 0x29, W               
     926     039D          0686                    XORWF PORTB, F             
     927     039E          2AD1                    GOTO 0x2D1                 
     928     039F          3003                    MOVLW 0x3                  
     929     03A0          23F2                    CALL 0x3F2                 
     930     03A1          1D03                    BTFSS STATUS, 0x2          
     931     03A2          2AD2                    GOTO 0x2D2                 
     932     03A3          118A                    BCF PCLATH, 0x3            
     933     03A4          160A                    BSF PCLATH, 0x4            
     934     03A5          2C31                    GOTO 0x431                 
     935     03A6          3001                    MOVLW 0x1                  
     936     03A7          23F2                    CALL 0x3F2                 
     937     03A8          1D03                    BTFSS STATUS, 0x2          
     938     03A9          2AD2                    GOTO 0x2D2                 
     939     03AA          30E0                    MOVLW 0xE0                 
     940     03AB          23EA                    CALL 0x3EA                 
     941     03AC          30E0                    MOVLW 0xE0                 
     942     03AD          0486                    IORWF PORTB, F             
     943     03AE          1683                    BSF STATUS, 0x5            
     944     03AF          01A7                    CLRF 0x27                  
     945     03B0          1683                    BSF STATUS, 0x5            
     946     03B1          01D3                    CLRF 0x53                  
     947     03B2          3008                    MOVLW 0x8                  
     948     03B3          00CF                    MOVWF 0x4F                 
     949     03B4          01D1                    CLRF 0x51                  
     950     03B5          3028                    MOVLW 0x28                 
     951     03B6          1AB7                    BTFSC 0x37, 0x5            
     952     03B7          3030                    MOVLW 0x30                 
     953     03B8          00D2                    MOVWF 0x52                 
     954     03B9          1283                    BCF STATUS, 0x5            
     955     03BA          1112                    BCF T2CON, 0x2             
     956     03BB          1023                    BCF 0x23, 0x0              
     957     03BC          1722                    BSF 0x22, 0x6              
     958     03BD          13A2                    BCF 0x22, 0x7              
     959     03BE          1683                    BSF STATUS, 0x5            
     960     03BF          11E4                    BCF 0x64, 0x3              
     961     03C0          1264                    BCF 0x64, 0x4              
     962     03C1          158A                    BSF PCLATH, 0x3            
     963     03C2          120A                    BCF PCLATH, 0x4            
     964     03C3          268E                    CALL 0x68E                 
     965     03C4          118A                    BCF PCLATH, 0x3            
     966     03C5          120A                    BCF PCLATH, 0x4            
     967     03C6          118A                    BCF PCLATH, 0x3            
     968     03C7          160A                    BSF PCLATH, 0x4            
     969     03C8          24E0                    CALL 0x4E0                 
     970     03C9          118A                    BCF PCLATH, 0x3            
     971     03CA          120A                    BCF PCLATH, 0x4            
     972     03CB          2AD1                    GOTO 0x2D1                 
     973     03CC          3002                    MOVLW 0x2                  
     974     03CD          23F2                    CALL 0x3F2                 
     975     03CE          1D03                    BTFSS STATUS, 0x2          
     976     03CF          2AD2                    GOTO 0x2D2                 
     977     03D0          1423                    BSF 0x23, 0x0              
     978     03D1          1E76                    BTFSS 0x76, 0x4            
     979     03D2          1023                    BCF 0x23, 0x0              
     980     03D3          1722                    BSF 0x22, 0x6              
     981     03D4          1CF6                    BTFSS 0x76, 0x1            
     982     03D5          1322                    BCF 0x22, 0x6              
     983     03D6          1685                    BSF PORTA, 0x5             
     984     03D7          1C76                    BTFSS 0x76, 0x0            
     985     03D8          1285                    BCF PORTA, 0x5             
     986     03D9          1D76                    BTFSS 0x76, 0x2            
     987     03DA          2BDE                    GOTO 0x3DE                 
     988     03DB          1683                    BSF STATUS, 0x5            
     989     03DC          15E4                    BSF 0x64, 0x3              
     990     03DD          2BE0                    GOTO 0x3E0                 
     991     03DE          1683                    BSF STATUS, 0x5            
     992     03DF          11E4                    BCF 0x64, 0x3              
     993     03E0          1283                    BCF STATUS, 0x5            
     994     03E1          1DF6                    BTFSS 0x76, 0x3            
     995     03E2          2BE6                    GOTO 0x3E6                 
     996     03E3          1683                    BSF STATUS, 0x5            
     997     03E4          1664                    BSF 0x64, 0x4              
     998     03E5          2BE8                    GOTO 0x3E8                 
     999     03E6          1683                    BSF STATUS, 0x5            
    1000     03E7          1264                    BCF 0x64, 0x4              
    1001     03E8          1283                    BCF STATUS, 0x5            
    1002     03E9          2AD1                    GOTO 0x2D1                 
    1003     03EA          3AE0                    XORLW 0xE0                 
    1004     03EB          381F                    IORLW 0x1F                 
    1005     03EC          05A4                    ANDWF 0x24, F              
    1006     03ED          0008                    RETURN                     
    1007     03EE          3001                    MOVLW 0x1                  
    1008     03EF          23F2                    CALL 0x3F2                 
    1009     03F0          1003                    BCF STATUS, 0x0            
    1010     03F1          2C0B                    GOTO 0x40B                 
    1011     03F2          00B1                    MOVWF 0x31                 
    1012     03F3          3077                    MOVLW 0x77                 
    1013     03F4          0084                    MOVWF FSR                  
    1014     03F5          0103                    CLRW                       
    1015     03F6          0700                    ADDWF INDF, W              
    1016     03F7          0384                    DECF FSR, F                
    1017     03F8          0BB1                    DECFSZ 0x31, F             
    1018     03F9          2BF6                    GOTO 0x3F6                 
    1019     03FA          3AFF                    XORLW 0xFF                 
    1020     03FB          0200                    SUBWF INDF, W              
    1021     03FC          2C0B                    GOTO 0x40B                 
    1022     03FD          3010                    MOVLW 0x10                 
    1023     03FE          0577                    ANDWF 0x77, W              
    1024     03FF          1903                    BTFSC STATUS, 0x2          
    1025     0400          2C02                    GOTO 0x402                 
    1026     0401          3400                    RETLW 0x0                  
    1027     0402          24AC                    CALL 0x4AC                 
    1028     0403          00A8                    MOVWF 0x28                 
    1029     0404          0877                    MOVF 0x77, W               
    1030     0405          00A9                    MOVWF 0x29                 
    1031     0406          0CA9                    RRF 0x29, F                
    1032     0407          0CA9                    RRF 0x29, F                
    1033     0408          0C29                    RRF 0x29, W                
    1034     0409          3907                    ANDLW 0x7                  
    1035     040A          0228                    SUBWF 0x28, W              
    1036     040B          1D03                    BTFSS STATUS, 0x2          
    1037     040C          3400                    RETLW 0x0                  
    1038     040D          3401                    RETLW 0x1                  
    1039     040E          3001                    MOVLW 0x1                  
    1040     040F          00C1                    MOVWF 0x41                 
    1041     0410          3000                    MOVLW 0x0                  
    1042     0411          118A                    BCF PCLATH, 0x3            
    1043     0412          160A                    BSF PCLATH, 0x4            
    1044     0413          23B9                    CALL 0x3B9                 
    1045     0414          118A                    BCF PCLATH, 0x3            
    1046     0415          120A                    BCF PCLATH, 0x4            
    1047     0416          118A                    BCF PCLATH, 0x3            
    1048     0417          160A                    BSF PCLATH, 0x4            
    1049     0418          2371                    CALL 0x371                 
    1050     0419          118A                    BCF PCLATH, 0x3            
    1051     041A          120A                    BCF PCLATH, 0x4            
    1052     041B          3080                    MOVLW 0x80                 
    1053     041C          158A                    BSF PCLATH, 0x3            
    1054     041D          120A                    BCF PCLATH, 0x4            
    1055     041E          2517                    CALL 0x517                 
    1056     041F          118A                    BCF PCLATH, 0x3            
    1057     0420          120A                    BCF PCLATH, 0x4            
    1058     0421          3001                    MOVLW 0x1                  
    1059     0422          158A                    BSF PCLATH, 0x3            
    1060     0423          120A                    BCF PCLATH, 0x4            
    1061     0424          2526                    CALL 0x526                 
    1062     0425          118A                    BCF PCLATH, 0x3            
    1063     0426          120A                    BCF PCLATH, 0x4            
    1064     0427          3013                    MOVLW 0x13                 
    1065     0428          00B3                    MOVWF 0x33                 
    1066     0429          2465                    CALL 0x465                 
    1067     042A          0008                    RETURN                     
    1068     042B          3001                    MOVLW 0x1                  
    1069     042C          23F2                    CALL 0x3F2                 
    1070     042D          1D03                    BTFSS STATUS, 0x2          
    1071     042E          2AD2                    GOTO 0x2D2                 
    1072     042F          240E                    CALL 0x40E                 
    1073     0430          158A                    BSF PCLATH, 0x3            
    1074     0431          120A                    BCF PCLATH, 0x4            
    1075     0432          2D36                    GOTO 0x536                 
    1076     0433          3400                    RETLW 0x0                  
    1077     0434          1A24                    BTFSC 0x24, 0x4            
    1078     0435          2C3F                    GOTO 0x43F                 
    1079     0436          3056                    MOVLW 0x56                 
    1080     0437          00C1                    MOVWF 0x41                 
    1081     0438          3000                    MOVLW 0x0                  
    1082     0439          118A                    BCF PCLATH, 0x3            
    1083     043A          160A                    BSF PCLATH, 0x4            
    1084     043B          23B9                    CALL 0x3B9                 
    1085     043C          118A                    BCF PCLATH, 0x3            
    1086     043D          120A                    BCF PCLATH, 0x4            
    1087     043E          0008                    RETURN                     
    1088     043F          3039                    MOVLW 0x39                 
    1089     0440          00C1                    MOVWF 0x41                 
    1090     0441          3000                    MOVLW 0x0                  
    1091     0442          118A                    BCF PCLATH, 0x3            
    1092     0443          160A                    BSF PCLATH, 0x4            
    1093     0444          23B9                    CALL 0x3B9                 
    1094     0445          118A                    BCF PCLATH, 0x3            
    1095     0446          120A                    BCF PCLATH, 0x4            
    1096     0447          0008                    RETURN                     
    1097     0448          26D8                    CALL 0x6D8                 
    1098     0449          3003                    MOVLW 0x3                  
    1099     044A          00C3                    MOVWF 0x43                 
    1100     044B          278B                    CALL 0x78B                 
    1101     044C          30C2                    MOVLW 0xC2                 
    1102     044D          00C1                    MOVWF 0x41                 
    1103     044E          3002                    MOVLW 0x2                  
    1104     044F          2792                    CALL 0x792                 
    1105     0450          2798                    CALL 0x798                 
    1106     0451          168B                    BSF INTCON, 0x5            
    1107     0452          1683                    BSF STATUS, 0x5            
    1108     0453          150C                    BSF PIR1, 0x2              
    1109     0454          148C                    BSF PIR1, 0x1              
    1110     0455          1283                    BCF STATUS, 0x5            
    1111     0456          26E4                    CALL 0x6E4                 
    1112     0457          2465                    CALL 0x465                 
    1113     0458          2434                    CALL 0x434                 
    1114     0459          22D4                    CALL 0x2D4                 
    1115     045A          3C01                    SUBLW 0x1                  
    1116     045B          1D03                    BTFSS STATUS, 0x2          
    1117     045C          2C62                    GOTO 0x462                 
    1118     045D          22C2                    CALL 0x2C2                 
    1119     045E          3C01                    SUBLW 0x1                  
    1120     045F          1D03                    BTFSS STATUS, 0x2          
    1121     0460          2C62                    GOTO 0x462                 
    1122     0461          0008                    RETURN                     
    1123     0462          0BC3                    DECFSZ 0x43, F             
    1124     0463          2C4B                    GOTO 0x44B                 
    1125     0464          0008                    RETURN                     
    1126     0465          0833                    MOVF 0x33, W               
    1127     0466          00B0                    MOVWF 0x30                 
    1128     0467          2788                    CALL 0x788                 
    1129     0468          1486                    BSF PORTB, 0x1             
    1130     0469          3001                    MOVLW 0x1                  
    1131     046A          2724                    CALL 0x724                 
    1132     046B          3074                    MOVLW 0x74                 
    1133     046C          00C1                    MOVWF 0x41                 
    1134     046D          3001                    MOVLW 0x1                  
    1135     046E          2792                    CALL 0x792                 
    1136     046F          0064                    CLRWDT                     
    1137     0470          1BFF                    BTFSC 0x7F, 0x7            
    1138     0471          2481                    CALL 0x481                 
    1139     0472          1FFF                    BTFSS 0x7F, 0x7            
    1140     0473          247E                    CALL 0x47E                 
    1141     0474          118A                    BCF PCLATH, 0x3            
    1142     0475          160A                    BSF PCLATH, 0x4            
    1143     0476          233B                    CALL 0x33B                 
    1144     0477          118A                    BCF PCLATH, 0x3            
    1145     0478          120A                    BCF PCLATH, 0x4            
    1146     0479          0BB0                    DECFSZ 0x30, F             
    1147     047A          2C6F                    GOTO 0x46F                 
    1148     047B          3003                    MOVLW 0x3                  
    1149     047C          2724                    CALL 0x724                 
    1150     047D          0008                    RETURN                     
    1151     047E          2798                    CALL 0x798                 
    1152     047F          1486                    BSF PORTB, 0x1             
    1153     0480          2C83                    GOTO 0x483                 
    1154     0481          2798                    CALL 0x798                 
    1155     0482          1086                    BCF PORTB, 0x1             
    1156     0483          168B                    BSF INTCON, 0x5            
    1157     0484          1683                    BSF STATUS, 0x5            
    1158     0485          150C                    BSF PIR1, 0x2              
    1159     0486          148C                    BSF PIR1, 0x1              
    1160     0487          1283                    BCF STATUS, 0x5            
    1161     0488          3094                    MOVLW 0x94                 
    1162     0489          00C1                    MOVWF 0x41                 
    1163     048A          3001                    MOVLW 0x1                  
    1164     048B          2792                    CALL 0x792                 
    1165     048C          0008                    RETURN                     
    1166     048D          1683                    BSF STATUS, 0x5            
    1167     048E          185E                    BTFSC 0x5E, 0x0            
    1168     048F          2CAA                    GOTO 0x4AA                 
    1169     0490          1283                    BCF STATUS, 0x5            
    1170     0491          1C23                    BTFSS 0x23, 0x0            
    1171     0492          0008                    RETURN                     
    1172     0493          1683                    BSF STATUS, 0x5            
    1173     0494          1DE4                    BTFSS 0x64, 0x3            
    1174     0495          2C97                    GOTO 0x497                 
    1175     0496          1DDF                    BTFSS 0x5F, 0x3            
    1176     0497          1564                    BSF 0x64, 0x2              
    1177     0498          1283                    BCF STATUS, 0x5            
    1178     0499          1306                    BCF PORTB, 0x6             
    1179     049A          14A3                    BSF 0x23, 0x1              
    1180     049B          304A                    MOVLW 0x4A                 
    1181     049C          00C1                    MOVWF 0x41                 
    1182     049D          3000                    MOVLW 0x0                  
    1183     049E          118A                    BCF PCLATH, 0x3            
    1184     049F          160A                    BSF PCLATH, 0x4            
    1185     04A0          23CB                    CALL 0x3CB                 
    1186     04A1          118A                    BCF PCLATH, 0x3            
    1187     04A2          120A                    BCF PCLATH, 0x4            
    1188     04A3          1F22                    BTFSS 0x22, 0x6            
    1189     04A4          0008                    RETURN                     
    1190     04A5          158A                    BSF PCLATH, 0x3            
    1191     04A6          120A                    BCF PCLATH, 0x4            
    1192     04A7          2665                    CALL 0x665                 
    1193     04A8          118A                    BCF PCLATH, 0x3            
    1194     04A9          120A                    BCF PCLATH, 0x4            
    1195     04AA          1283                    BCF STATUS, 0x5            
    1196     04AB          0008                    RETURN                     
    1197     04AC          1A24                    BTFSC 0x24, 0x4            
    1198     04AD          3400                    RETLW 0x0                  
    1199     04AE          3401                    RETLW 0x1                  
    1200     04AF          13A3                    BCF 0x23, 0x7              
    1201     04B0          16A3                    BSF 0x23, 0x5              
    1202     04B1          2CB9                    GOTO 0x4B9                 
    1203     04B2          1283                    BCF STATUS, 0x5            
    1204     04B3          1FA2                    BTFSS 0x22, 0x7            
    1205     04B4          2448                    CALL 0x448                 
    1206     04B5          248D                    CALL 0x48D                 
    1207     04B6          118A                    BCF PCLATH, 0x3            
    1208     04B7          160A                    BSF PCLATH, 0x4            
    1209     04B8          2D65                    GOTO 0x565                 
    1210     04B9          1283                    BCF STATUS, 0x5            
    1211     04BA          24C5                    CALL 0x4C5                 
    1212     04BB          158A                    BSF PCLATH, 0x3            
    1213     04BC          120A                    BCF PCLATH, 0x4            
    1214     04BD          2CBB                    GOTO 0x4BB                 
    1215     04BE          1283                    BCF STATUS, 0x5            
    1216     04BF          158A                    BSF PCLATH, 0x3            
    1217     04C0          120A                    BCF PCLATH, 0x4            
    1218     04C1          2D50                    GOTO 0x550                 
    1219     04C2          2448                    CALL 0x448                 
    1220     04C3          1283                    BCF STATUS, 0x5            
    1221     04C4          2930                    GOTO 0x130                 
    1222     04C5          1683                    BSF STATUS, 0x5            
    1223     04C6          1EB7                    BTFSS 0x37, 0x5            
    1224     04C7          2CD8                    GOTO 0x4D8                 
    1225     04C8          1283                    BCF STATUS, 0x5            
    1226     04C9          26B0                    CALL 0x6B0                 
    1227     04CA          26B6                    CALL 0x6B6                 
    1228     04CB          267C                    CALL 0x67C                 
    1229     04CC          270A                    CALL 0x70A                 
    1230     04CD          25C8                    CALL 0x5C8                 
    1231     04CE          3001                    MOVLW 0x1                  
    1232     04CF          00B2                    MOVWF 0x32                 
    1233     04D0          26B6                    CALL 0x6B6                 
    1234     04D1          267C                    CALL 0x67C                 
    1235     04D2          300A                    MOVLW 0xA                  
    1236     04D3          00BE                    MOVWF 0x3E                 
    1237     04D4          3003                    MOVLW 0x3                  
    1238     04D5          00BD                    MOVWF 0x3D                 
    1239     04D6          25A0                    CALL 0x5A0                 
    1240     04D7          0008                    RETURN                     
    1241     04D8          08F4                    MOVF 0x74, F               
    1242     04D9          1903                    BTFSC STATUS, 0x2          
    1243     04DA          2CE8                    GOTO 0x4E8                 
    1244     04DB          26B3                    CALL 0x6B3                 
    1245     04DC          3005                    MOVLW 0x5                  
    1246     04DD          00BE                    MOVWF 0x3E                 
    1247     04DE          3005                    MOVLW 0x5                  
    1248     04DF          00BD                    MOVWF 0x3D                 
    1249     04E0          26B6                    CALL 0x6B6                 
    1250     04E1          267C                    CALL 0x67C                 
    1251     04E2          270A                    CALL 0x70A                 
    1252     04E3          25C8                    CALL 0x5C8                 
    1253     04E4          26B6                    CALL 0x6B6                 
    1254     04E5          267C                    CALL 0x67C                 
    1255     04E6          25A0                    CALL 0x5A0                 
    1256     04E7          0008                    RETURN                     
    1257     04E8          13F3                    BCF 0x73, 0x7              
    1258     04E9          26B0                    CALL 0x6B0                 
    1259     04EA          26B6                    CALL 0x6B6                 
    1260     04EB          267C                    CALL 0x67C                 
    1261     04EC          270A                    CALL 0x70A                 
    1262     04ED          0008                    RETURN                     
    1263     04EE          1683                    BSF STATUS, 0x5            
    1264     04EF          185E                    BTFSC 0x5E, 0x0            
    1265     04F0          259A                    CALL 0x59A                 
    1266     04F1          1283                    BCF STATUS, 0x5            
    1267     04F2          1DA6                    BTFSS 0x26, 0x3            
    1268     04F3          26B3                    CALL 0x6B3                 
    1269     04F4          19A6                    BTFSC 0x26, 0x3            
    1270     04F5          26B0                    CALL 0x6B0                 
    1271     04F6          300F                    MOVLW 0xF                  
    1272     04F7          053D                    ANDWF 0x3D, W              
    1273     04F8          00BE                    MOVWF 0x3E                 
    1274     04F9          0E3D                    SWAPF 0x3D, W              
    1275     04FA          390F                    ANDLW 0xF                  
    1276     04FB          00BD                    MOVWF 0x3D                 
    1277     04FC          1A26                    BTFSC 0x26, 0x4            
    1278     04FD          25C8                    CALL 0x5C8                 
    1279     04FE          258E                    CALL 0x58E                 
    1280     04FF          118A                    BCF PCLATH, 0x3            
    1281     0500          160A                    BSF PCLATH, 0x4            
    1282     0501          23EE                    CALL 0x3EE                 
    1283     0502          118A                    BCF PCLATH, 0x3            
    1284     0503          120A                    BCF PCLATH, 0x4            
    1285     0504          270A                    CALL 0x70A                 
    1286     0505          25C8                    CALL 0x5C8                 
    1287     0506          258E                    CALL 0x58E                 
    1288     0507          25A0                    CALL 0x5A0                 
    1289     0508          0064                    CLRWDT                     
    1290     0509          257B                    CALL 0x57B                 
    1291     050A          118A                    BCF PCLATH, 0x3            
    1292     050B          160A                    BSF PCLATH, 0x4            
    1293     050C          2408                    CALL 0x408                 
    1294     050D          118A                    BCF PCLATH, 0x3            
    1295     050E          120A                    BCF PCLATH, 0x4            
    1296     050F          01BF                    CLRF 0x3F                  
    1297     0510          2582                    CALL 0x582                 
    1298     0511          158A                    BSF PCLATH, 0x3            
    1299     0512          120A                    BCF PCLATH, 0x4            
    1300     0513          2233                    CALL 0x233                 
    1301     0514          118A                    BCF PCLATH, 0x3            
    1302     0515          120A                    BCF PCLATH, 0x4            
    1303     0516          083E                    MOVF 0x3E, W               
    1304     0517          00A8                    MOVWF 0x28                 
    1305     0518          1003                    BCF STATUS, 0x0            
    1306     0519          0DA8                    RLF 0x28, F                
    1307     051A          0D28                    RLF 0x28, W                
    1308     051B          073E                    ADDWF 0x3E, W              
    1309     051C          118A                    BCF PCLATH, 0x3            
    1310     051D          160A                    BSF PCLATH, 0x4            
    1311     051E          2400                    CALL 0x400                 
    1312     051F          118A                    BCF PCLATH, 0x3            
    1313     0520          120A                    BCF PCLATH, 0x4            
    1314     0521          00B3                    MOVWF 0x33                 
    1315     0522          03BE                    DECF 0x3E, F               
    1316     0523          25C0                    CALL 0x5C0                 
    1317     0524          1C3E                    BTFSS 0x3E, 0x0            
    1318     0525          0E80                    SWAPF INDF, F              
    1319     0526          01A7                    CLRF 0x27                  
    1320     0527          01B5                    CLRF 0x35                  
    1321     0528          082B                    MOVF 0x2B, W               
    1322     0529          0084                    MOVWF FSR                  
    1323     052A          0800                    MOVF INDF, W               
    1324     052B          06A7                    XORWF 0x27, F              
    1325     052C          3004                    MOVLW 0x4                  
    1326     052D          00B6                    MOVWF 0x36                 
    1327     052E          082B                    MOVF 0x2B, W               
    1328     052F          0084                    MOVWF FSR                  
    1329     0530          0C80                    RRF INDF, F                
    1330     0531          1803                    BTFSC STATUS, 0x0          
    1331     0532          0AB5                    INCF 0x35, F               
    1332     0533          118A                    BCF PCLATH, 0x3            
    1333     0534          160A                    BSF PCLATH, 0x4            
    1334     0535          2344                    CALL 0x344                 
    1335     0536          118A                    BCF PCLATH, 0x3            
    1336     0537          120A                    BCF PCLATH, 0x4            
    1337     0538          0BB6                    DECFSZ 0x36, F             
    1338     0539          2D2E                    GOTO 0x52E                 
    1339     053A          0AB5                    INCF 0x35, F               
    1340     053B          0C35                    RRF 0x35, W                
    1341     053C          118A                    BCF PCLATH, 0x3            
    1342     053D          160A                    BSF PCLATH, 0x4            
    1343     053E          2344                    CALL 0x344                 
    1344     053F          118A                    BCF PCLATH, 0x3            
    1345     0540          120A                    BCF PCLATH, 0x4            
    1346     0541          01B5                    CLRF 0x35                  
    1347     0542          03BE                    DECF 0x3E, F               
    1348     0543          1C3E                    BTFSS 0x3E, 0x0            
    1349     0544          2D2C                    GOTO 0x52C                 
    1350     0545          03AB                    DECF 0x2B, F               
    1351     0546          1FBE                    BTFSS 0x3E, 0x7            
    1352     0547          2D28                    GOTO 0x528                 
    1353     0548          3005                    MOVLW 0x5                  
    1354     0549          00B6                    MOVWF 0x36                 
    1355     054A          1403                    BSF STATUS, 0x0            
    1356     054B          118A                    BCF PCLATH, 0x3            
    1357     054C          160A                    BSF PCLATH, 0x4            
    1358     054D          2344                    CALL 0x344                 
    1359     054E          118A                    BCF PCLATH, 0x3            
    1360     054F          120A                    BCF PCLATH, 0x4            
    1361     0550          0BB6                    DECFSZ 0x36, F             
    1362     0551          2D4A                    GOTO 0x54A                 
    1363     0552          0E27                    SWAPF 0x27, W              
    1364     0553          3A0F                    XORLW 0xF                  
    1365     0554          06A7                    XORWF 0x27, F              
    1366     0555          3004                    MOVLW 0x4                  
    1367     0556          00B6                    MOVWF 0x36                 
    1368     0557          01B5                    CLRF 0x35                  
    1369     0558          0CA7                    RRF 0x27, F                
    1370     0559          1803                    BTFSC STATUS, 0x0          
    1371     055A          0AB5                    INCF 0x35, F               
    1372     055B          118A                    BCF PCLATH, 0x3            
    1373     055C          160A                    BSF PCLATH, 0x4            
    1374     055D          2344                    CALL 0x344                 
    1375     055E          118A                    BCF PCLATH, 0x3            
    1376     055F          120A                    BCF PCLATH, 0x4            
    1377     0560          0BB6                    DECFSZ 0x36, F             
    1378     0561          2D58                    GOTO 0x558                 
    1379     0562          3080                    MOVLW 0x80                 
    1380     0563          00B6                    MOVWF 0x36                 
    1381     0564          0833                    MOVF 0x33, W               
    1382     0565          02B6                    SUBWF 0x36, F              
    1383     0566          0AB5                    INCF 0x35, F               
    1384     0567          0CB5                    RRF 0x35, F                
    1385     0568          118A                    BCF PCLATH, 0x3            
    1386     0569          160A                    BSF PCLATH, 0x4            
    1387     056A          2344                    CALL 0x344                 
    1388     056B          118A                    BCF PCLATH, 0x3            
    1389     056C          120A                    BCF PCLATH, 0x4            
    1390     056D          1003                    BCF STATUS, 0x0            
    1391     056E          118A                    BCF PCLATH, 0x3            
    1392     056F          160A                    BSF PCLATH, 0x4            
    1393     0570          2344                    CALL 0x344                 
    1394     0571          118A                    BCF PCLATH, 0x3            
    1395     0572          120A                    BCF PCLATH, 0x4            
    1396     0573          0BB6                    DECFSZ 0x36, F             
    1397     0574          2D6D                    GOTO 0x56D                 
    1398     0575          083F                    MOVF 0x3F, W               
    1399     0576          07B3                    ADDWF 0x33, F              
    1400     0577          25DA                    CALL 0x5DA                 
    1401     0578          118A                    BCF PCLATH, 0x3            
    1402     0579          160A                    BSF PCLATH, 0x4            
    1403     057A          2D65                    GOTO 0x565                 
    1404     057B          18A6                    BTFSC 0x26, 0x1            
    1405     057C          300B                    MOVLW 0xB                  
    1406     057D          1CA6                    BTFSS 0x26, 0x1            
    1407     057E          300D                    MOVLW 0xD                  
    1408     057F          1926                    BTFSC 0x26, 0x2            
    1409     0580          25B3                    CALL 0x5B3                 
    1410     0581          0008                    RETURN                     
    1411     0582          00A8                    MOVWF 0x28                 
    1412     0583          0836                    MOVF 0x36, W               
    1413     0584          07BF                    ADDWF 0x3F, F              
    1414     0585          0DA8                    RLF 0x28, F                
    1415     0586          118A                    BCF PCLATH, 0x3            
    1416     0587          160A                    BSF PCLATH, 0x4            
    1417     0588          2344                    CALL 0x344                 
    1418     0589          118A                    BCF PCLATH, 0x3            
    1419     058A          120A                    BCF PCLATH, 0x4            
    1420     058B          0BB6                    DECFSZ 0x36, F             
    1421     058C          2D85                    GOTO 0x585                 
    1422     058D          0008                    RETURN                     
    1423     058E          26B6                    CALL 0x6B6                 
    1424     058F          1EA6                    BTFSS 0x26, 0x5            
    1425     0590          267C                    CALL 0x67C                 
    1426     0591          1AA6                    BTFSC 0x26, 0x5            
    1427     0592          2D94                    GOTO 0x594                 
    1428     0593          0008                    RETURN                     
    1429     0594          158A                    BSF PCLATH, 0x3            
    1430     0595          120A                    BCF PCLATH, 0x4            
    1431     0596          26F0                    CALL 0x6F0                 
    1432     0597          118A                    BCF PCLATH, 0x3            
    1433     0598          120A                    BCF PCLATH, 0x4            
    1434     0599          0008                    RETURN                     
    1435     059A          1283                    BCF STATUS, 0x5            
    1436     059B          300F                    MOVLW 0xF                  
    1437     059C          05F0                    ANDWF 0x70, F              
    1438     059D          3001                    MOVLW 0x1                  
    1439     059E          00BD                    MOVWF 0x3D                 
    1440     059F          0008                    RETURN                     
    1441     05A0          083D                    MOVF 0x3D, W               
    1442     05A1          1903                    BTFSC STATUS, 0x2          
    1443     05A2          0008                    RETURN                     
    1444     05A3          25C0                    CALL 0x5C0                 
    1445     05A4          01A8                    CLRF 0x28                  
    1446     05A5          158A                    BSF PCLATH, 0x3            
    1447     05A6          120A                    BCF PCLATH, 0x4            
    1448     05A7          273C                    CALL 0x73C                 
    1449     05A8          118A                    BCF PCLATH, 0x3            
    1450     05A9          120A                    BCF PCLATH, 0x4            
    1451     05AA          082B                    MOVF 0x2B, W               
    1452     05AB          0084                    MOVWF FSR                  
    1453     05AC          0829                    MOVF 0x29, W               
    1454     05AD          25B3                    CALL 0x5B3                 
    1455     05AE          1C3E                    BTFSS 0x3E, 0x0            
    1456     05AF          0AAB                    INCF 0x2B, F               
    1457     05B0          0BBD                    DECFSZ 0x3D, F             
    1458     05B1          2DA5                    GOTO 0x5A5                 
    1459     05B2          0008                    RETURN                     
    1460     05B3          00A9                    MOVWF 0x29                 
    1461     05B4          25C0                    CALL 0x5C0                 
    1462     05B5          30F0                    MOVLW 0xF0                 
    1463     05B6          183E                    BTFSC 0x3E, 0x0            
    1464     05B7          0580                    ANDWF INDF, F              
    1465     05B8          1C3E                    BTFSS 0x3E, 0x0            
    1466     05B9          0EA9                    SWAPF 0x29, F              
    1467     05BA          1C3E                    BTFSS 0x3E, 0x0            
    1468     05BB          0180                    CLRF INDF                  
    1469     05BC          0829                    MOVF 0x29, W               
    1470     05BD          0480                    IORWF INDF, F              
    1471     05BE          0ABE                    INCF 0x3E, F               
    1472     05BF          0008                    RETURN                     
    1473     05C0          3060                    MOVLW 0x60                 
    1474     05C1          00AB                    MOVWF 0x2B                 
    1475     05C2          1003                    BCF STATUS, 0x0            
    1476     05C3          0C3E                    RRF 0x3E, W                
    1477     05C4          07AB                    ADDWF 0x2B, F              
    1478     05C5          082B                    MOVF 0x2B, W               
    1479     05C6          0084                    MOVWF FSR                  
    1480     05C7          0008                    RETURN                     
    1481     05C8          158A                    BSF PCLATH, 0x3            
    1482     05C9          120A                    BCF PCLATH, 0x4            
    1483     05CA          2F1C                    GOTO 0x71C                 
    1484     05CB          0008                    RETURN                     
    1485     05CC          3067                    MOVLW 0x67                 
    1486     05CD          0084                    MOVWF FSR                  
    1487     05CE          0C80                    RRF INDF, F                
    1488     05CF          0384                    DECF FSR, F                
    1489     05D0          1D84                    BTFSS FSR, 0x3             
    1490     05D1          2DCE                    GOTO 0x5CE                 
    1491     05D2          0008                    RETURN                     
    1492     05D3          30BF                    MOVLW 0xBF                 
    1493     05D4          0084                    MOVWF FSR                  
    1494     05D5          0C80                    RRF INDF, F                
    1495     05D6          0384                    DECF FSR, F                
    1496     05D7          1A04                    BTFSC FSR, 0x4             
    1497     05D8          2DD5                    GOTO 0x5D5                 
    1498     05D9          0008                    RETURN                     
    1499     05DA          263D                    CALL 0x63D                 
    1500     05DB          0064                    CLRWDT                     
    1501     05DC          1C70                    BTFSS 0x70, 0x0            
    1502     05DD          25F2                    CALL 0x5F2                 
    1503     05DE          1870                    BTFSC 0x70, 0x0            
    1504     05DF          25F5                    CALL 0x5F5                 
    1505     05E0          118A                    BCF PCLATH, 0x3            
    1506     05E1          160A                    BSF PCLATH, 0x4            
    1507     05E2          2344                    CALL 0x344                 
    1508     05E3          118A                    BCF PCLATH, 0x3            
    1509     05E4          120A                    BCF PCLATH, 0x4            
    1510     05E5          118A                    BCF PCLATH, 0x3            
    1511     05E6          160A                    BSF PCLATH, 0x4            
    1512     05E7          26AD                    CALL 0x6AD                 
    1513     05E8          118A                    BCF PCLATH, 0x3            
    1514     05E9          120A                    BCF PCLATH, 0x4            
    1515     05EA          0BB3                    DECFSZ 0x33, F             
    1516     05EB          2DDB                    GOTO 0x5DB                 
    1517     05EC          168B                    BSF INTCON, 0x5            
    1518     05ED          1683                    BSF STATUS, 0x5            
    1519     05EE          150C                    BSF PIR1, 0x2              
    1520     05EF          148C                    BSF PIR1, 0x1              
    1521     05F0          1283                    BCF STATUS, 0x5            
    1522     05F1          0008                    RETURN                     
    1523     05F2          2798                    CALL 0x798                 
    1524     05F3          1086                    BCF PORTB, 0x1             
    1525     05F4          2DF7                    GOTO 0x5F7                 
    1526     05F5          2798                    CALL 0x798                 
    1527     05F6          1486                    BSF PORTB, 0x1             
    1528     05F7          25F9                    CALL 0x5F9                 
    1529     05F8          0008                    RETURN                     
    1530     05F9          3017                    MOVLW 0x17                 
    1531     05FA          00C1                    MOVWF 0x41                 
    1532     05FB          3001                    MOVLW 0x1                  
    1533     05FC          2792                    CALL 0x792                 
    1534     05FD          2798                    CALL 0x798                 
    1535     05FE          1506                    BSF PORTB, 0x2             
    1536     05FF          168B                    BSF INTCON, 0x5            
    1537     0600          1683                    BSF STATUS, 0x5            
    1538     0601          150C                    BSF PIR1, 0x2              
    1539     0602          148C                    BSF PIR1, 0x1              
    1540     0603          1283                    BCF STATUS, 0x5            
    1541     0604          262F                    CALL 0x62F                 
    1542     0605          2E2B                    GOTO 0x62B                 
    1543     0606          2798                    CALL 0x798                 
    1544     0607          1106                    BCF PORTB, 0x2             
    1545     0608          168B                    BSF INTCON, 0x5            
    1546     0609          1683                    BSF STATUS, 0x5            
    1547     060A          150C                    BSF PIR1, 0x2              
    1548     060B          148C                    BSF PIR1, 0x1              
    1549     060C          1283                    BCF STATUS, 0x5            
    1550     060D          2636                    CALL 0x636                 
    1551     060E          3401                    RETLW 0x1                  
    1552     060F          263D                    CALL 0x63D                 
    1553     0610          0064                    CLRWDT                     
    1554     0611          1870                    BTFSC 0x70, 0x0            
    1555     0612          2628                    CALL 0x628                 
    1556     0613          1C70                    BTFSS 0x70, 0x0            
    1557     0614          2622                    CALL 0x622                 
    1558     0615          118A                    BCF PCLATH, 0x3            
    1559     0616          160A                    BSF PCLATH, 0x4            
    1560     0617          2344                    CALL 0x344                 
    1561     0618          118A                    BCF PCLATH, 0x3            
    1562     0619          120A                    BCF PCLATH, 0x4            
    1563     061A          0BB3                    DECFSZ 0x33, F             
    1564     061B          2E10                    GOTO 0x610                 
    1565     061C          168B                    BSF INTCON, 0x5            
    1566     061D          1683                    BSF STATUS, 0x5            
    1567     061E          150C                    BSF PIR1, 0x2              
    1568     061F          148C                    BSF PIR1, 0x1              
    1569     0620          1283                    BCF STATUS, 0x5            
    1570     0621          0008                    RETURN                     
    1571     0622          2798                    CALL 0x798                 
    1572     0623          1486                    BSF PORTB, 0x1             
    1573     0624          262F                    CALL 0x62F                 
    1574     0625          2798                    CALL 0x798                 
    1575     0626          1086                    BCF PORTB, 0x1             
    1576     0627          2E2D                    GOTO 0x62D                 
    1577     0628          2798                    CALL 0x798                 
    1578     0629          1506                    BSF PORTB, 0x2             
    1579     062A          262F                    CALL 0x62F                 
    1580     062B          2798                    CALL 0x798                 
    1581     062C          1106                    BCF PORTB, 0x2             
    1582     062D          2636                    CALL 0x636                 
    1583     062E          3401                    RETLW 0x1                  
    1584     062F          082D                    MOVF 0x2D, W               
    1585     0630          00AF                    MOVWF 0x2F                 
    1586     0631          083A                    MOVF 0x3A, W               
    1587     0632          07AD                    ADDWF 0x2D, F              
    1588     0633          0A39                    INCF 0x39, W               
    1589     0634          00AE                    MOVWF 0x2E                 
    1590     0635          3401                    RETLW 0x1                  
    1591     0636          082D                    MOVF 0x2D, W               
    1592     0637          00AF                    MOVWF 0x2F                 
    1593     0638          0838                    MOVF 0x38, W               
    1594     0639          07AD                    ADDWF 0x2D, F              
    1595     063A          0A37                    INCF 0x37, W               
    1596     063B          00AE                    MOVWF 0x2E                 
    1597     063C          3401                    RETLW 0x1                  
    1598     063D          278B                    CALL 0x78B                 
    1599     063E          30E7                    MOVLW 0xE7                 
    1600     063F          00C1                    MOVWF 0x41                 
    1601     0640          3001                    MOVLW 0x1                  
    1602     0641          2792                    CALL 0x792                 
    1603     0642          1586                    BSF PORTB, 0x3             
    1604     0643          0008                    RETURN                     
    1605     0644          278B                    CALL 0x78B                 
    1606     0645          2241                    CALL 0x241                 
    1607     0646          1D03                    BTFSS STATUS, 0x2          
    1608     0647          0008                    RETURN                     
    1609     0648          30E7                    MOVLW 0xE7                 
    1610     0649          00C1                    MOVWF 0x41                 
    1611     064A          3001                    MOVLW 0x1                  
    1612     064B          2792                    CALL 0x792                 
    1613     064C          2798                    CALL 0x798                 
    1614     064D          168B                    BSF INTCON, 0x5            
    1615     064E          1683                    BSF STATUS, 0x5            
    1616     064F          150C                    BSF PIR1, 0x2              
    1617     0650          148C                    BSF PIR1, 0x1              
    1618     0651          1283                    BCF STATUS, 0x5            
    1619     0652          1186                    BCF PORTB, 0x3             
    1620     0653          0008                    RETURN                     
    1621     0654          263D                    CALL 0x63D                 
    1622     0655          0064                    CLRWDT                     
    1623     0656          187E                    BTFSC 0x7E, 0x0            
    1624     0657          2668                    CALL 0x668                 
    1625     0658          1C7E                    BTFSS 0x7E, 0x0            
    1626     0659          266B                    CALL 0x66B                 
    1627     065A          158A                    BSF PCLATH, 0x3            
    1628     065B          120A                    BCF PCLATH, 0x4            
    1629     065C          218D                    CALL 0x18D                 
    1630     065D          118A                    BCF PCLATH, 0x3            
    1631     065E          120A                    BCF PCLATH, 0x4            
    1632     065F          0BB3                    DECFSZ 0x33, F             
    1633     0660          2E55                    GOTO 0x655                 
    1634     0661          1283                    BCF STATUS, 0x5            
    1635     0662          168B                    BSF INTCON, 0x5            
    1636     0663          1683                    BSF STATUS, 0x5            
    1637     0664          150C                    BSF PIR1, 0x2              
    1638     0665          148C                    BSF PIR1, 0x1              
    1639     0666          1283                    BCF STATUS, 0x5            
    1640     0667          0008                    RETURN                     
    1641     0668          2798                    CALL 0x798                 
    1642     0669          1086                    BCF PORTB, 0x1             
    1643     066A          2E6D                    GOTO 0x66D                 
    1644     066B          2798                    CALL 0x798                 
    1645     066C          1486                    BSF PORTB, 0x1             
    1646     066D          1683                    BSF STATUS, 0x5            
    1647     066E          1F2E                    BTFSS 0x2E, 0x6            
    1648     066F          2E76                    GOTO 0x676                 
    1649     0670          1283                    BCF STATUS, 0x5            
    1650     0671          3018                    MOVLW 0x18                 
    1651     0672          00C1                    MOVWF 0x41                 
    1652     0673          3001                    MOVLW 0x1                  
    1653     0674          2792                    CALL 0x792                 
    1654     0675          2E7B                    GOTO 0x67B                 
    1655     0676          1283                    BCF STATUS, 0x5            
    1656     0677          30C0                    MOVLW 0xC0                 
    1657     0678          00C1                    MOVWF 0x41                 
    1658     0679          3001                    MOVLW 0x1                  
    1659     067A          2792                    CALL 0x792                 
    1660     067B          0008                    RETURN                     
    1661     067C          304F                    MOVLW 0x4F                 
    1662     067D          00AA                    MOVWF 0x2A                 
    1663     067E          01A9                    CLRF 0x29                  
    1664     067F          158A                    BSF PCLATH, 0x3            
    1665     0680          120A                    BCF PCLATH, 0x4            
    1666     0681          2730                    CALL 0x730                 
    1667     0682          118A                    BCF PCLATH, 0x3            
    1668     0683          120A                    BCF PCLATH, 0x4            
    1669     0684          1903                    BTFSC STATUS, 0x2          
    1670     0685          2E93                    GOTO 0x693                 
    1671     0686          2694                    CALL 0x694                 
    1672     0687          0AA9                    INCF 0x29, F               
    1673     0688          1829                    BTFSC 0x29, 0x0            
    1674     0689          0EA8                    SWAPF 0x28, F              
    1675     068A          1829                    BTFSC 0x29, 0x0            
    1676     068B          0AAA                    INCF 0x2A, F               
    1677     068C          082A                    MOVF 0x2A, W               
    1678     068D          0084                    MOVWF FSR                  
    1679     068E          1829                    BTFSC 0x29, 0x0            
    1680     068F          0180                    CLRF INDF                  
    1681     0690          0828                    MOVF 0x28, W               
    1682     0691          0480                    IORWF INDF, F              
    1683     0692          2E7F                    GOTO 0x67F                 
    1684     0693          3401                    RETLW 0x1                  
    1685     0694          01A8                    CLRF 0x28                  
    1686     0695          0832                    MOVF 0x32, W               
    1687     0696          00B0                    MOVWF 0x30                 
    1688     0697          1003                    BCF STATUS, 0x0            
    1689     0698          0DB0                    RLF 0x30, F                
    1690     0699          0DB0                    RLF 0x30, F                
    1691     069A          0DB0                    RLF 0x30, F                
    1692     069B          26A7                    CALL 0x6A7                 
    1693     069C          0DA8                    RLF 0x28, F                
    1694     069D          300A                    MOVLW 0xA                  
    1695     069E          0228                    SUBWF 0x28, W              
    1696     069F          1C03                    BTFSS STATUS, 0x0          
    1697     06A0          2EA3                    GOTO 0x6A3                 
    1698     06A1          300A                    MOVLW 0xA                  
    1699     06A2          02A8                    SUBWF 0x28, F              
    1700     06A3          0BB0                    DECFSZ 0x30, F             
    1701     06A4          2E9B                    GOTO 0x69B                 
    1702     06A5          26A7                    CALL 0x6A7                 
    1703     06A6          3401                    RETLW 0x1                  
    1704     06A7          3070                    MOVLW 0x70                 
    1705     06A8          0084                    MOVWF FSR                  
    1706     06A9          0832                    MOVF 0x32, W               
    1707     06AA          00FF                    MOVWF 0x7F                 
    1708     06AB          0D80                    RLF INDF, F                
    1709     06AC          0A84                    INCF FSR, F                
    1710     06AD          0BFF                    DECFSZ 0x7F, F             
    1711     06AE          2EAB                    GOTO 0x6AB                 
    1712     06AF          3401                    RETLW 0x1                  
    1713     06B0          3004                    MOVLW 0x4                  
    1714     06B1          00B2                    MOVWF 0x32                 
    1715     06B2          0008                    RETURN                     
    1716     06B3          3002                    MOVLW 0x2                  
    1717     06B4          00B2                    MOVWF 0x32                 
    1718     06B5          0008                    RETURN                     
    1719     06B6          3050                    MOVLW 0x50                 
    1720     06B7          0084                    MOVWF FSR                  
    1721     06B8          0180                    CLRF INDF                  
    1722     06B9          0A84                    INCF FSR, F                
    1723     06BA          1D84                    BTFSS FSR, 0x3             
    1724     06BB          2EB8                    GOTO 0x6B8                 
    1725     06BC          0008                    RETURN                     
    1726     06BD          3070                    MOVLW 0x70                 
    1727     06BE          0084                    MOVWF FSR                  
    1728     06BF          0180                    CLRF INDF                  
    1729     06C0          0A84                    INCF FSR, F                
    1730     06C1          1A04                    BTFSC FSR, 0x4             
    1731     06C2          2EBF                    GOTO 0x6BF                 
    1732     06C3          0008                    RETURN                     
    1733     06C4          3060                    MOVLW 0x60                 
    1734     06C5          0084                    MOVWF FSR                  
    1735     06C6          1204                    BCF FSR, 0x4               
    1736     06C7          0800                    MOVF INDF, W               
    1737     06C8          1604                    BSF FSR, 0x4               
    1738     06C9          0080                    MOVWF INDF                 
    1739     06CA          0A84                    INCF FSR, F                
    1740     06CB          1D84                    BTFSS FSR, 0x3             
    1741     06CC          2EC6                    GOTO 0x6C6                 
    1742     06CD          0008                    RETURN                     
    1743     06CE          3070                    MOVLW 0x70                 
    1744     06CF          0084                    MOVWF FSR                  
    1745     06D0          1604                    BSF FSR, 0x4               
    1746     06D1          0800                    MOVF INDF, W               
    1747     06D2          1204                    BCF FSR, 0x4               
    1748     06D3          0080                    MOVWF INDF                 
    1749     06D4          0A84                    INCF FSR, F                
    1750     06D5          1D84                    BTFSS FSR, 0x3             
    1751     06D6          2ED0                    GOTO 0x6D0                 
    1752     06D7          0008                    RETURN                     
    1753     06D8          3070                    MOVLW 0x70                 
    1754     06D9          0084                    MOVWF FSR                  
    1755     06DA          3010                    MOVLW 0x10                 
    1756     06DB          00A8                    MOVWF 0x28                 
    1757     06DC          1604                    BSF FSR, 0x4               
    1758     06DD          0800                    MOVF INDF, W               
    1759     06DE          1204                    BCF FSR, 0x4               
    1760     06DF          0080                    MOVWF INDF                 
    1761     06E0          0A84                    INCF FSR, F                
    1762     06E1          0BA8                    DECFSZ 0x28, F             
    1763     06E2          2EDC                    GOTO 0x6DC                 
    1764     06E3          0008                    RETURN                     
    1765     06E4          3060                    MOVLW 0x60                 
    1766     06E5          0084                    MOVWF FSR                  
    1767     06E6          3010                    MOVLW 0x10                 
    1768     06E7          00A8                    MOVWF 0x28                 
    1769     06E8          1204                    BCF FSR, 0x4               
    1770     06E9          0800                    MOVF INDF, W               
    1771     06EA          1604                    BSF FSR, 0x4               
    1772     06EB          0080                    MOVWF INDF                 
    1773     06EC          0A84                    INCF FSR, F                
    1774     06ED          0BA8                    DECFSZ 0x28, F             
    1775     06EE          2EE8                    GOTO 0x6E8                 
    1776     06EF          0008                    RETURN                     
    1777     06F0          3060                    MOVLW 0x60                 
    1778     06F1          0084                    MOVWF FSR                  
    1779     06F2          3010                    MOVLW 0x10                 
    1780     06F3          00A8                    MOVWF 0x28                 
    1781     06F4          1204                    BCF FSR, 0x4               
    1782     06F5          1684                    BSF FSR, 0x5               
    1783     06F6          0800                    MOVF INDF, W               
    1784     06F7          1604                    BSF FSR, 0x4               
    1785     06F8          1284                    BCF FSR, 0x5               
    1786     06F9          0080                    MOVWF INDF                 
    1787     06FA          0A84                    INCF FSR, F                
    1788     06FB          0BA8                    DECFSZ 0x28, F             
    1789     06FC          2EF4                    GOTO 0x6F4                 
    1790     06FD          0008                    RETURN                     
    1791     06FE          3070                    MOVLW 0x70                 
    1792     06FF          0084                    MOVWF FSR                  
    1793     0700          1684                    BSF FSR, 0x5               
    1794     0701          1184                    BCF FSR, 0x3               
    1795     0702          0800                    MOVF INDF, W               
    1796     0703          1284                    BCF FSR, 0x5               
    1797     0704          1584                    BSF FSR, 0x3               
    1798     0705          0080                    MOVWF INDF                 
    1799     0706          0A84                    INCF FSR, F                
    1800     0707          1984                    BTFSC FSR, 0x3             
    1801     0708          2F00                    GOTO 0x700                 
    1802     0709          0008                    RETURN                     
    1803     070A          3050                    MOVLW 0x50                 
    1804     070B          0084                    MOVWF FSR                  
    1805     070C          1604                    BSF FSR, 0x4               
    1806     070D          1284                    BCF FSR, 0x5               
    1807     070E          0800                    MOVF INDF, W               
    1808     070F          1204                    BCF FSR, 0x4               
    1809     0710          1684                    BSF FSR, 0x5               
    1810     0711          0080                    MOVWF INDF                 
    1811     0712          0A84                    INCF FSR, F                
    1812     0713          1D84                    BTFSS FSR, 0x3             
    1813     0714          2F0C                    GOTO 0x70C                 
    1814     0715          0008                    RETURN                     
    1815     0716          1683                    BSF STATUS, 0x5            
    1816     0717          0833                    MOVF 0x33, W               
    1817     0718          2F1B                    GOTO 0x71B                 
    1818     0719          1683                    BSF STATUS, 0x5            
    1819     071A          0832                    MOVF 0x32, W               
    1820     071B          1283                    BCF STATUS, 0x5            
    1821     071C          00A8                    MOVWF 0x28                 
    1822     071D          0008                    RETURN                     
    1823     071E          118A                    BCF PCLATH, 0x3            
    1824     071F          160A                    BSF PCLATH, 0x4            
    1825     0720          24B1                    CALL 0x4B1                 
    1826     0721          118A                    BCF PCLATH, 0x3            
    1827     0722          120A                    BCF PCLATH, 0x4            
    1828     0723          0008                    RETURN                     
    1829     0724          1683                    BSF STATUS, 0x5            
    1830     0725          0086                    MOVWF PORTB                
    1831     0726          1283                    BCF STATUS, 0x5            
    1832     0727          0008                    RETURN                     
    1833     0728          1B26                    BTFSC 0x26, 0x6            
    1834     0729          2F4F                    GOTO 0x74F                 
    1835     072A          1BA6                    BTFSC 0x26, 0x7            
    1836     072B          2F4F                    GOTO 0x74F                 
    1837     072C          2755                    CALL 0x755                 
    1838     072D          118A                    BCF PCLATH, 0x3            
    1839     072E          160A                    BSF PCLATH, 0x4            
    1840     072F          2676                    CALL 0x676                 
    1841     0730          118A                    BCF PCLATH, 0x3            
    1842     0731          120A                    BCF PCLATH, 0x4            
    1843     0732          118A                    BCF PCLATH, 0x3            
    1844     0733          160A                    BSF PCLATH, 0x4            
    1845     0734          25B8                    CALL 0x5B8                 
    1846     0735          118A                    BCF PCLATH, 0x3            
    1847     0736          120A                    BCF PCLATH, 0x4            
    1848     0737          118A                    BCF PCLATH, 0x3            
    1849     0738          160A                    BSF PCLATH, 0x4            
    1850     0739          2600                    CALL 0x600                 
    1851     073A          118A                    BCF PCLATH, 0x3            
    1852     073B          120A                    BCF PCLATH, 0x4            
    1853     073C          1683                    BSF STATUS, 0x5            
    1854     073D          192D                    BTFSC 0x2D, 0x2            
    1855     073E          2F44                    GOTO 0x744                 
    1856     073F          118A                    BCF PCLATH, 0x3            
    1857     0740          160A                    BSF PCLATH, 0x4            
    1858     0741          24FA                    CALL 0x4FA                 
    1859     0742          118A                    BCF PCLATH, 0x3            
    1860     0743          120A                    BCF PCLATH, 0x4            
    1861     0744          158A                    BSF PCLATH, 0x3            
    1862     0745          120A                    BCF PCLATH, 0x4            
    1863     0746          26C1                    CALL 0x6C1                 
    1864     0747          118A                    BCF PCLATH, 0x3            
    1865     0748          120A                    BCF PCLATH, 0x4            
    1866     0749          118A                    BCF PCLATH, 0x3            
    1867     074A          160A                    BSF PCLATH, 0x4            
    1868     074B          2489                    CALL 0x489                 
    1869     074C          118A                    BCF PCLATH, 0x3            
    1870     074D          120A                    BCF PCLATH, 0x4            
    1871     074E          0008                    RETURN                     
    1872     074F          118A                    BCF PCLATH, 0x3            
    1873     0750          160A                    BSF PCLATH, 0x4            
    1874     0751          25E3                    CALL 0x5E3                 
    1875     0752          118A                    BCF PCLATH, 0x3            
    1876     0753          120A                    BCF PCLATH, 0x4            
    1877     0754          0008                    RETURN                     
    1878     0755          2241                    CALL 0x241                 
    1879     0756          1D03                    BTFSS STATUS, 0x2          
    1880     0757          0008                    RETURN                     
    1881     0758          1186                    BCF PORTB, 0x3             
    1882     0759          0008                    RETURN                     
    1883     075A          2760                    CALL 0x760                 
    1884     075B          0878                    MOVF 0x78, W               
    1885     075C          06F7                    XORWF 0x77, F              
    1886     075D          0879                    MOVF 0x79, W               
    1887     075E          06F6                    XORWF 0x76, F              
    1888     075F          0008                    RETURN                     
    1889     0760          26CE                    CALL 0x6CE                 
    1890     0761          118A                    BCF PCLATH, 0x3            
    1891     0762          160A                    BSF PCLATH, 0x4            
    1892     0763          2411                    CALL 0x411                 
    1893     0764          118A                    BCF PCLATH, 0x3            
    1894     0765          120A                    BCF PCLATH, 0x4            
    1895     0766          26C4                    CALL 0x6C4                 
    1896     0767          0008                    RETURN                     
    1897     0768          00C2                    MOVWF 0x42                 
    1898     0769          0BC1                    DECFSZ 0x41, F             
    1899     076A          2F69                    GOTO 0x769                 
    1900     076B          0064                    CLRWDT                     
    1901     076C          0BC2                    DECFSZ 0x42, F             
    1902     076D          2F69                    GOTO 0x769                 
    1903     076E          3400                    RETLW 0x0                  
    1904     076F          2F70                    GOTO 0x770                 
    1905     0770          2F71                    GOTO 0x771                 
    1906     0771          2F72                    GOTO 0x772                 
    1907     0772          2F73                    GOTO 0x773                 
    1908     0773          2F74                    GOTO 0x774                 
    1909     0774          2F75                    GOTO 0x775                 
    1910     0775          2F76                    GOTO 0x776                 
    1911     0776          2F77                    GOTO 0x777                 
    1912     0777          2F78                    GOTO 0x778                 
    1913     0778          2F79                    GOTO 0x779                 
    1914     0779          2F7A                    GOTO 0x77A                 
    1915     077A          2F7B                    GOTO 0x77B                 
    1916     077B          2F7C                    GOTO 0x77C                 
    1917     077C          0000                    NOP                        
    1918     077D          0008                    RETURN                     
    1919     077E          2F7F                    GOTO 0x77F                 
    1920     077F          2F80                    GOTO 0x780                 
    1921     0780          2F81                    GOTO 0x781                 
    1922     0781          2F82                    GOTO 0x782                 
    1923     0782          2F83                    GOTO 0x783                 
    1924     0783          30FB                    MOVLW 0xFB                 
    1925     0784          3E01                    ADDLW 0x1                  
    1926     0785          1D03                    BTFSS STATUS, 0x2          
    1927     0786          2F84                    GOTO 0x784                 
    1928     0787          0008                    RETURN                     
    1929     0788          3001                    MOVLW 0x1                  
    1930     0789          0201                    SUBWF TMR0, W              
    1931     078A          2F8D                    GOTO 0x78D                 
    1932     078B          3001                    MOVLW 0x1                  
    1933     078C          0701                    ADDWF TMR0, W              
    1934     078D          00AF                    MOVWF 0x2F                 
    1935     078E          00AD                    MOVWF 0x2D                 
    1936     078F          01AE                    CLRF 0x2E                  
    1937     0790          0AAE                    INCF 0x2E, F               
    1938     0791          0008                    RETURN                     
    1939     0792          00AE                    MOVWF 0x2E                 
    1940     0793          082D                    MOVF 0x2D, W               
    1941     0794          00AF                    MOVWF 0x2F                 
    1942     0795          0841                    MOVF 0x41, W               
    1943     0796          07AD                    ADDWF 0x2D, F              
    1944     0797          0008                    RETURN                     
    1945     0798          128B                    BCF INTCON, 0x5            
    1946     0799          1683                    BSF STATUS, 0x5            
    1947     079A          108C                    BCF PIR1, 0x1              
    1948     079B          1283                    BCF STATUS, 0x5            
    1949     079C          2FA2                    GOTO 0x7A2                 
    1950     079D          0064                    CLRWDT                     
    1951     079E          082F                    MOVF 0x2F, W               
    1952     079F          0201                    SUBWF TMR0, W              
    1953     07A0          1D03                    BTFSS STATUS, 0x2          
    1954     07A1          2F9D                    GOTO 0x79D                 
    1955     07A2          0000                    NOP                        
    1956     07A3          0BAE                    DECFSZ 0x2E, F             
    1957     07A4          2F9D                    GOTO 0x79D                 
    1958     07A5          3060                    MOVLW 0x60                 
    1959     07A6          00A8                    MOVWF 0x28                 
    1960     07A7          0BA8                    DECFSZ 0x28, F             
    1961     07A8          2FB1                    GOTO 0x7B1                 
    1962     07A9          1683                    BSF STATUS, 0x5            
    1963     07AA          110C                    BCF PIR1, 0x2              
    1964     07AB          1283                    BCF STATUS, 0x5            
    1965     07AC          118A                    BCF PCLATH, 0x3            
    1966     07AD          160A                    BSF PCLATH, 0x4            
    1967     07AE          25AF                    CALL 0x5AF                 
    1968     07AF          118A                    BCF PCLATH, 0x3            
    1969     07B0          120A                    BCF PCLATH, 0x4            
    1970     07B1          0A2D                    INCF 0x2D, W               
    1971     07B2          0201                    SUBWF TMR0, W              
    1972     07B3          1D03                    BTFSS STATUS, 0x2          
    1973     07B4          2FA7                    GOTO 0x7A7                 
    1974     07B5          1683                    BSF STATUS, 0x5            
    1975     07B6          150C                    BSF PIR1, 0x2              
    1976     07B7          1283                    BCF STATUS, 0x5            
    1977     07B8          3400                    RETLW 0x0                  
    1978     07B9          128B                    BCF INTCON, 0x5            
    1979     07BA          1683                    BSF STATUS, 0x5            
    1980     07BB          108C                    BCF PIR1, 0x1              
    1981     07BC          1283                    BCF STATUS, 0x5            
    1982     07BD          2FC3                    GOTO 0x7C3                 
    1983     07BE          0064                    CLRWDT                     
    1984     07BF          082F                    MOVF 0x2F, W               
    1985     07C0          0201                    SUBWF TMR0, W              
    1986     07C1          1D03                    BTFSS STATUS, 0x2          
    1987     07C2          2FBE                    GOTO 0x7BE                 
    1988     07C3          0000                    NOP                        
    1989     07C4          0BAE                    DECFSZ 0x2E, F             
    1990     07C5          2FBE                    GOTO 0x7BE                 
    1991     07C6          3050                    MOVLW 0x50                 
    1992     07C7          00BB                    MOVWF 0x3B                 
    1993     07C8          0BBB                    DECFSZ 0x3B, F             
    1994     07C9          2FD2                    GOTO 0x7D2                 
    1995     07CA          1683                    BSF STATUS, 0x5            
    1996     07CB          110C                    BCF PIR1, 0x2              
    1997     07CC          1283                    BCF STATUS, 0x5            
    1998     07CD          118A                    BCF PCLATH, 0x3            
    1999     07CE          160A                    BSF PCLATH, 0x4            
    2000     07CF          25AF                    CALL 0x5AF                 
    2001     07D0          118A                    BCF PCLATH, 0x3            
    2002     07D1          120A                    BCF PCLATH, 0x4            
    2003     07D2          0A2D                    INCF 0x2D, W               
    2004     07D3          0201                    SUBWF TMR0, W              
    2005     07D4          1D03                    BTFSS STATUS, 0x2          
    2006     07D5          2FC8                    GOTO 0x7C8                 
    2007     07D6          1683                    BSF STATUS, 0x5            
    2008     07D7          150C                    BSF PIR1, 0x2              
    2009     07D8          1283                    BCF STATUS, 0x5            
    2010     07D9          3400                    RETLW 0x0                  
    2011     07DA          3FFF                    ADDLW 0xFF                 
    2012     07DB          3FFF                    ADDLW 0xFF                 
    2013     07DC          3FFF                    ADDLW 0xFF                 
    2014     07DD          3FFF                    ADDLW 0xFF                 
    2015     07DE          3FFF                    ADDLW 0xFF                 
    2016     07DF          3FFF                    ADDLW 0xFF                 
    2017     07E0          3FFF                    ADDLW 0xFF                 
    2018     07E1          3FFF                    ADDLW 0xFF                 
    2019     07E2          3FFF                    ADDLW 0xFF                 
    2020     07E3          3FFF                    ADDLW 0xFF                 
    2021     07E4          3FFF                    ADDLW 0xFF                 
    2022     07E5          3FFF                    ADDLW 0xFF                 
    2023     07E6          3FFF                    ADDLW 0xFF                 
    2024     07E7          3FFF                    ADDLW 0xFF                 
    2025     07E8          3FFF                    ADDLW 0xFF                 
    2026     07E9          3FFF                    ADDLW 0xFF                 
    2027     07EA          3FFF                    ADDLW 0xFF                 
    2028     07EB          3FFF                    ADDLW 0xFF                 
    2029     07EC          3FFF                    ADDLW 0xFF                 
    2030     07ED          3FFF                    ADDLW 0xFF                 
    2031     07EE          3FFF                    ADDLW 0xFF                 
    2032     07EF          3FFF                    ADDLW 0xFF                 
    2033     07F0          3FFF                    ADDLW 0xFF                 
    2034     07F1          3FFF                    ADDLW 0xFF                 
    2035     07F2          3FFF                    ADDLW 0xFF                 
    2036     07F3          3FFF                    ADDLW 0xFF                 
    2037     07F4          3FFF                    ADDLW 0xFF                 
    2038     07F5          3FFF                    ADDLW 0xFF                 
    2039     07F6          3FFF                    ADDLW 0xFF                 
    2040     07F7          3FFF                    ADDLW 0xFF                 
    2041     07F8          3FFF                    ADDLW 0xFF                 
    2042     07F9          3FFF                    ADDLW 0xFF                 
    2043     07FA          3FFF                    ADDLW 0xFF                 
    2044     07FB          3FFF                    ADDLW 0xFF                 
    2045     07FC          3FFF                    ADDLW 0xFF                 
    2046     07FD          3FFF                    ADDLW 0xFF                 
    2047     07FE          3FFF                    ADDLW 0xFF                 
    2048     07FF          3FFF                    ADDLW 0xFF                 
    2049     0800          0840                    MOVF 0x40, W               
    2050     0801          3CBE                    SUBLW 0xBE                 
    2051     0802          1903                    BTFSC STATUS, 0x2          
    2052     0803          2A1E                    GOTO 0x21E                 
    2053     0804          0840                    MOVF 0x40, W               
    2054     0805          3CBD                    SUBLW 0xBD                 
    2055     0806          1903                    BTFSC STATUS, 0x2          
    2056     0807          2A1E                    GOTO 0x21E                 
    2057     0808          0840                    MOVF 0x40, W               
    2058     0809          3C47                    SUBLW 0x47                 
    2059     080A          1903                    BTFSC STATUS, 0x2          
    2060     080B          29B8                    GOTO 0x1B8                 
    2061     080C          0840                    MOVF 0x40, W               
    2062     080D          3C4D                    SUBLW 0x4D                 
    2063     080E          1903                    BTFSC STATUS, 0x2          
    2064     080F          29CD                    GOTO 0x1CD                 
    2065     0810          0840                    MOVF 0x40, W               
    2066     0811          3C4E                    SUBLW 0x4E                 
    2067     0812          1903                    BTFSC STATUS, 0x2          
    2068     0813          29E8                    GOTO 0x1E8                 
    2069     0814          0840                    MOVF 0x40, W               
    2070     0815          3C4F                    SUBLW 0x4F                 
    2071     0816          1903                    BTFSC STATUS, 0x2          
    2072     0817          2A03                    GOTO 0x203                 
    2073     0818          0840                    MOVF 0x40, W               
    2074     0819          3C59                    SUBLW 0x59                 
    2075     081A          1903                    BTFSC STATUS, 0x2          
    2076     081B          2B29                    GOTO 0x329                 
    2077     081C          0840                    MOVF 0x40, W               
    2078     081D          3C24                    SUBLW 0x24                 
    2079     081E          1903                    BTFSC STATUS, 0x2          
    2080     081F          2B0E                    GOTO 0x30E                 
    2081     0820          0840                    MOVF 0x40, W               
    2082     0821          3C12                    SUBLW 0x12                 
    2083     0822          1903                    BTFSC STATUS, 0x2          
    2084     0823          2AF1                    GOTO 0x2F1                 
    2085     0824          0840                    MOVF 0x40, W               
    2086     0825          3C04                    SUBLW 0x4                  
    2087     0826          1903                    BTFSC STATUS, 0x2          
    2088     0827          2AD8                    GOTO 0x2D8                 
    2089     0828          0840                    MOVF 0x40, W               
    2090     0829          3C02                    SUBLW 0x2                  
    2091     082A          1903                    BTFSC STATUS, 0x2          
    2092     082B          2ABF                    GOTO 0x2BF                 
    2093     082C          0840                    MOVF 0x40, W               
    2094     082D          3C0E                    SUBLW 0xE                  
    2095     082E          1903                    BTFSC STATUS, 0x2          
    2096     082F          2B3C                    GOTO 0x33C                 
    2097     0830          0840                    MOVF 0x40, W               
    2098     0831          3C00                    SUBLW 0x0                  
    2099     0832          1903                    BTFSC STATUS, 0x2          
    2100     0833          2AA6                    GOTO 0x2A6                 
    2101     0834          0840                    MOVF 0x40, W               
    2102     0835          3C8C                    SUBLW 0x8C                 
    2103     0836          1903                    BTFSC STATUS, 0x2          
    2104     0837          2AA6                    GOTO 0x2A6                 
    2105     0838          0840                    MOVF 0x40, W               
    2106     0839          3C8E                    SUBLW 0x8E                 
    2107     083A          1903                    BTFSC STATUS, 0x2          
    2108     083B          2B57                    GOTO 0x357                 
    2109     083C          0840                    MOVF 0x40, W               
    2110     083D          3C60                    SUBLW 0x60                 
    2111     083E          1903                    BTFSC STATUS, 0x2          
    2112     083F          289A                    GOTO 0x9A                  
    2113     0840          0840                    MOVF 0x40, W               
    2114     0841          3C64                    SUBLW 0x64                 
    2115     0842          1903                    BTFSC STATUS, 0x2          
    2116     0843          28B6                    GOTO 0xB6                  
    2117     0844          0840                    MOVF 0x40, W               
    2118     0845          3C6A                    SUBLW 0x6A                 
    2119     0846          1903                    BTFSC STATUS, 0x2          
    2120     0847          28D2                    GOTO 0xD2                  
    2121     0848          0840                    MOVF 0x40, W               
    2122     0849          3CBC                    SUBLW 0xBC                 
    2123     084A          1D03                    BTFSS STATUS, 0x2          
    2124     084B          2852                    GOTO 0x52                  
    2125     084C          118A                    BCF PCLATH, 0x3            
    2126     084D          120A                    BCF PCLATH, 0x4            
    2127     084E          2CAF                    GOTO 0x4AF                 
    2128     084F          118A                    BCF PCLATH, 0x3            
    2129     0850          160A                    BSF PCLATH, 0x4            
    2130     0851          2D65                    GOTO 0x565                 
    2131     0852          118A                    BCF PCLATH, 0x3            
    2132     0853          120A                    BCF PCLATH, 0x4            
    2133     0854          291C                    GOTO 0x11C                 
    2134     0855          1605                    BSF PORTA, 0x4             
    2135     0856          1703                    BSF STATUS, 0x6            
    2136     0857          1283                    BCF STATUS, 0x5            
    2137     0858          1303                    BCF STATUS, 0x6            
    2138     0859          1283                    BCF STATUS, 0x5            
    2139     085A          1683                    BSF STATUS, 0x5            
    2140     085B          30C2                    MOVLW 0xC2                 
    2141     085C          0081                    MOVWF TMR0                 
    2142     085D          300D                    MOVLW 0xD                  
    2143     085E          009F                    MOVWF ADCON0               
    2144     085F          30CF                    MOVLW 0xCF                 
    2145     0860          0085                    MOVWF PORTA                
    2146     0861          3001                    MOVLW 0x1                  
    2147     0862          0086                    MOVWF PORTB                
    2148     0863          30F0                    MOVLW 0xF0                 
    2149     0864          0087                    MOVWF PORTC                
    2150     0865          3088                    MOVLW 0x88                 
    2151     0866          009D                    MOVWF CCP2CON              
    2152     0867          3006                    MOVLW 0x6                  
    2153     0868          009C                    MOVWF CCPR2H               
    2154     0869          089C                    MOVF CCPR2H, F             
    2155     086A          1283                    BCF STATUS, 0x5            
    2156     086B          3000                    MOVLW 0x0                  
    2157     086C          0094                    MOVWF SSPCON               
    2158     086D          307B                    MOVLW 0x7B                 
    2159     086E          0092                    MOVWF T2CON                
    2160     086F          30DF                    MOVLW 0xDF                 
    2161     0870          1683                    BSF STATUS, 0x5            
    2162     0871          0092                    MOVWF T2CON                
    2163     0872          1283                    BCF STATUS, 0x5            
    2164     0873          300B                    MOVLW 0xB                  
    2165     0874          0097                    MOVWF CCP1CON              
    2166     0875          3034                    MOVLW 0x34                 
    2167     0876          0090                    MOVWF T1CON                
    2168     0877          3006                    MOVLW 0x6                  
    2169     0878          1683                    BSF STATUS, 0x5            
    2170     0879          008C                    MOVWF PIR1                 
    2171     087A          1283                    BCF STATUS, 0x5            
    2172     087B          3006                    MOVLW 0x6                  
    2173     087C          2649                    CALL 0x649                 
    2174     087D          26A3                    CALL 0x6A3                 
    2175     087E          018C                    CLRF PIR1                  
    2176     087F          30C0                    MOVLW 0xC0                 
    2177     0880          008B                    MOVWF INTCON               
    2178     0881          30E0                    MOVLW 0xE0                 
    2179     0882          0086                    MOVWF PORTB                
    2180     0883          30E0                    MOVLW 0xE0                 
    2181     0884          118A                    BCF PCLATH, 0x3            
    2182     0885          120A                    BCF PCLATH, 0x4            
    2183     0886          23EA                    CALL 0x3EA                 
    2184     0887          158A                    BSF PCLATH, 0x3            
    2185     0888          120A                    BCF PCLATH, 0x4            
    2186     0889          1685                    BSF PORTA, 0x5             
    2187     088A          1683                    BSF STATUS, 0x5            
    2188     088B          01DE                    CLRF 0x5E                  
    2189     088C          01A7                    CLRF 0x27                  
    2190     088D          01AD                    CLRF 0x2D                  
    2191     088E          01AB                    CLRF 0x2B                  
    2192     088F          01AC                    CLRF 0x2C                  
    2193     0890          01D8                    CLRF 0x58                  
    2194     0891          01D9                    CLRF 0x59                  
    2195     0892          15AD                    BSF 0x2D, 0x3              
    2196     0893          14DE                    BSF 0x5E, 0x1              
    2197     0894          155E                    BSF 0x5E, 0x2              
    2198     0895          01DF                    CLRF 0x5F                  
    2199     0896          01E4                    CLRF 0x64                  
    2200     0897          118A                    BCF PCLATH, 0x3            
    2201     0898          120A                    BCF PCLATH, 0x4            
    2202     0899          28D7                    GOTO 0xD7                  
    2203     089A          17A3                    BSF 0x23, 0x7              
    2204     089B          1683                    BSF STATUS, 0x5            
    2205     089C          0831                    MOVF 0x31, W               
    2206     089D          1283                    BCF STATUS, 0x5            
    2207     089E          3980                    ANDLW 0x80                 
    2208     089F          1D03                    BTFSS STATUS, 0x2          
    2209     08A0          13A3                    BCF 0x23, 0x7              
    2210     08A1          12A3                    BCF 0x23, 0x5              
    2211     08A2          3008                    MOVLW 0x8                  
    2212     08A3          00B1                    MOVWF 0x31                 
    2213     08A4          302A                    MOVLW 0x2A                 
    2214     08A5          1683                    BSF STATUS, 0x5            
    2215     08A6          00D6                    MOVWF 0x56                 
    2216     08A7          3023                    MOVLW 0x23                 
    2217     08A8          00D7                    MOVWF 0x57                 
    2218     08A9          122E                    BCF 0x2E, 0x4              
    2219     08AA          12AE                    BCF 0x2E, 0x5              
    2220     08AB          1283                    BCF STATUS, 0x5            
    2221     08AC          1683                    BSF STATUS, 0x5            
    2222     08AD          1EB7                    BTFSS 0x37, 0x5            
    2223     08AE          28B2                    GOTO 0xB2                  
    2224     08AF          300A                    MOVLW 0xA                  
    2225     08B0          1283                    BCF STATUS, 0x5            
    2226     08B1          00B1                    MOVWF 0x31                 
    2227     08B2          21B0                    CALL 0x1B0                 
    2228     08B3          1283                    BCF STATUS, 0x5            
    2229     08B4          26F0                    CALL 0x6F0                 
    2230     08B5          290E                    GOTO 0x10E                 
    2231     08B6          17A3                    BSF 0x23, 0x7              
    2232     08B7          1683                    BSF STATUS, 0x5            
    2233     08B8          0831                    MOVF 0x31, W               
    2234     08B9          1283                    BCF STATUS, 0x5            
    2235     08BA          3980                    ANDLW 0x80                 
    2236     08BB          1D03                    BTFSS STATUS, 0x2          
    2237     08BC          13A3                    BCF 0x23, 0x7              
    2238     08BD          12A3                    BCF 0x23, 0x5              
    2239     08BE          3008                    MOVLW 0x8                  
    2240     08BF          00B1                    MOVWF 0x31                 
    2241     08C0          302A                    MOVLW 0x2A                 
    2242     08C1          1683                    BSF STATUS, 0x5            
    2243     08C2          00D6                    MOVWF 0x56                 
    2244     08C3          3023                    MOVLW 0x23                 
    2245     08C4          00D7                    MOVWF 0x57                 
    2246     08C5          162E                    BSF 0x2E, 0x4              
    2247     08C6          16AE                    BSF 0x2E, 0x5              
    2248     08C7          1283                    BCF STATUS, 0x5            
    2249     08C8          1683                    BSF STATUS, 0x5            
    2250     08C9          1EB7                    BTFSS 0x37, 0x5            
    2251     08CA          28CE                    GOTO 0xCE                  
    2252     08CB          300A                    MOVLW 0xA                  
    2253     08CC          1283                    BCF STATUS, 0x5            
    2254     08CD          00B1                    MOVWF 0x31                 
    2255     08CE          21B0                    CALL 0x1B0                 
    2256     08CF          1283                    BCF STATUS, 0x5            
    2257     08D0          26F0                    CALL 0x6F0                 
    2258     08D1          290E                    GOTO 0x10E                 
    2259     08D2          118A                    BCF PCLATH, 0x3            
    2260     08D3          120A                    BCF PCLATH, 0x4            
    2261     08D4          26FE                    CALL 0x6FE                 
    2262     08D5          158A                    BSF PCLATH, 0x3            
    2263     08D6          120A                    BCF PCLATH, 0x4            
    2264     08D7          118A                    BCF PCLATH, 0x3            
    2265     08D8          120A                    BCF PCLATH, 0x4            
    2266     08D9          24DB                    CALL 0x4DB                 
    2267     08DA          158A                    BSF PCLATH, 0x3            
    2268     08DB          120A                    BCF PCLATH, 0x4            
    2269     08DC          118A                    BCF PCLATH, 0x3            
    2270     08DD          120A                    BCF PCLATH, 0x4            
    2271     08DE          26F0                    CALL 0x6F0                 
    2272     08DF          158A                    BSF PCLATH, 0x3            
    2273     08E0          120A                    BCF PCLATH, 0x4            
    2274     08E1          13A3                    BCF 0x23, 0x7              
    2275     08E2          12A3                    BCF 0x23, 0x5              
    2276     08E3          300A                    MOVLW 0xA                  
    2277     08E4          00B1                    MOVWF 0x31                 
    2278     08E5          302A                    MOVLW 0x2A                 
    2279     08E6          1683                    BSF STATUS, 0x5            
    2280     08E7          00D6                    MOVWF 0x56                 
    2281     08E8          3023                    MOVLW 0x23                 
    2282     08E9          00D7                    MOVWF 0x57                 
    2283     08EA          122E                    BCF 0x2E, 0x4              
    2284     08EB          12AE                    BCF 0x2E, 0x5              
    2285     08EC          1283                    BCF STATUS, 0x5            
    2286     08ED          118A                    BCF PCLATH, 0x3            
    2287     08EE          160A                    BSF PCLATH, 0x4            
    2288     08EF          23EE                    CALL 0x3EE                 
    2289     08F0          158A                    BSF PCLATH, 0x3            
    2290     08F1          120A                    BCF PCLATH, 0x4            
    2291     08F2          21B0                    CALL 0x1B0                 
    2292     08F3          290E                    GOTO 0x10E                 
    2293     08F4          2696                    CALL 0x696                 
    2294     08F5          2696                    CALL 0x696                 
    2295     08F6          26E2                    CALL 0x6E2                 
    2296     08F7          26FB                    CALL 0x6FB                 
    2297     08F8          3021                    MOVLW 0x21                 
    2298     08F9          06DB                    XORWF 0x5B, F              
    2299     08FA          3048                    MOVLW 0x48                 
    2300     08FB          06DA                    XORWF 0x5A, F              
    2301     08FC          13A3                    BCF 0x23, 0x7              
    2302     08FD          16A3                    BSF 0x23, 0x5              
    2303     08FE          3018                    MOVLW 0x18                 
    2304     08FF          00B1                    MOVWF 0x31                 
    2305     0900          302A                    MOVLW 0x2A                 
    2306     0901          1683                    BSF STATUS, 0x5            
    2307     0902          00D6                    MOVWF 0x56                 
    2308     0903          3023                    MOVLW 0x23                 
    2309     0904          00D7                    MOVWF 0x57                 
    2310     0905          162E                    BSF 0x2E, 0x4              
    2311     0906          16AE                    BSF 0x2E, 0x5              
    2312     0907          1283                    BCF STATUS, 0x5            
    2313     0908          1683                    BSF STATUS, 0x5            
    2314     0909          3078                    MOVLW 0x78                 
    2315     090A          00AE                    MOVWF 0x2E                 
    2316     090B          1283                    BCF STATUS, 0x5            
    2317     090C          21AB                    CALL 0x1AB                 
    2318     090D          290F                    GOTO 0x10F                 
    2319     090E          2193                    CALL 0x193                 
    2320     090F          0064                    CLRWDT                     
    2321     0910          1683                    BSF STATUS, 0x5            
    2322     0911          0856                    MOVF 0x56, W               
    2323     0912          1283                    BCF STATUS, 0x5            
    2324     0913          00A9                    MOVWF 0x29                 
    2325     0914          215B                    CALL 0x15B                 
    2326     0915          213D                    CALL 0x13D                 
    2327     0916          1283                    BCF STATUS, 0x5            
    2328     0917          3001                    MOVLW 0x1                  
    2329     0918          0231                    SUBWF 0x31, W              
    2330     0919          00A8                    MOVWF 0x28                 
    2331     091A          1283                    BCF STATUS, 0x5            
    2332     091B          2181                    CALL 0x181                 
    2333     091C          2153                    CALL 0x153                 
    2334     091D          215B                    CALL 0x15B                 
    2335     091E          213D                    CALL 0x13D                 
    2336     091F          1283                    BCF STATUS, 0x5            
    2337     0920          0BB1                    DECFSZ 0x31, F             
    2338     0921          291A                    GOTO 0x11A                 
    2339     0922          1683                    BSF STATUS, 0x5            
    2340     0923          0857                    MOVF 0x57, W               
    2341     0924          1283                    BCF STATUS, 0x5            
    2342     0925          00A9                    MOVWF 0x29                 
    2343     0926          215B                    CALL 0x15B                 
    2344     0927          213D                    CALL 0x13D                 
    2345     0928          1683                    BSF STATUS, 0x5            
    2346     0929          1E2E                    BTFSS 0x2E, 0x4            
    2347     092A          2930                    GOTO 0x130                 
    2348     092B          1283                    BCF STATUS, 0x5            
    2349     092C          300D                    MOVLW 0xD                  
    2350     092D          00A9                    MOVWF 0x29                 
    2351     092E          215B                    CALL 0x15B                 
    2352     092F          213D                    CALL 0x13D                 
    2353     0930          1683                    BSF STATUS, 0x5            
    2354     0931          1EAE                    BTFSS 0x2E, 0x5            
    2355     0932          2938                    GOTO 0x138                 
    2356     0933          1283                    BCF STATUS, 0x5            
    2357     0934          300A                    MOVLW 0xA                  
    2358     0935          00A9                    MOVWF 0x29                 
    2359     0936          215B                    CALL 0x15B                 
    2360     0937          213D                    CALL 0x13D                 
    2361     0938          1683                    BSF STATUS, 0x5            
    2362     0939          18D8                    BTFSC 0x58, 0x1            
    2363     093A          28F6                    GOTO 0xF6                  
    2364     093B          1283                    BCF STATUS, 0x5            
    2365     093C          284F                    GOTO 0x4F                  
    2366     093D          1683                    BSF STATUS, 0x5            
    2367     093E          084E                    MOVF 0x4E, W               
    2368     093F          1283                    BCF STATUS, 0x5            
    2369     0940          3C10                    SUBLW 0x10                 
    2370     0941          00B3                    MOVWF 0x33                 
    2371     0942          1403                    BSF STATUS, 0x0            
    2372     0943          218D                    CALL 0x18D                 
    2373     0944          0BB3                    DECFSZ 0x33, F             
    2374     0945          2942                    GOTO 0x142                 
    2375     0946          1683                    BSF STATUS, 0x5            
    2376     0947          084E                    MOVF 0x4E, W               
    2377     0948          1283                    BCF STATUS, 0x5            
    2378     0949          00B3                    MOVWF 0x33                 
    2379     094A          118A                    BCF PCLATH, 0x3            
    2380     094B          120A                    BCF PCLATH, 0x4            
    2381     094C          2654                    CALL 0x654                 
    2382     094D          158A                    BSF PCLATH, 0x3            
    2383     094E          120A                    BCF PCLATH, 0x4            
    2384     094F          1683                    BSF STATUS, 0x5            
    2385     0950          01CE                    CLRF 0x4E                  
    2386     0951          1283                    BCF STATUS, 0x5            
    2387     0952          0008                    RETURN                     
    2388     0953          3C09                    SUBLW 0x9                  
    2389     0954          1C03                    BTFSS STATUS, 0x0          
    2390     0955          2958                    GOTO 0x158                 
    2391     0956          3030                    MOVLW 0x30                 
    2392     0957          2959                    GOTO 0x159                 
    2393     0958          3037                    MOVLW 0x37                 
    2394     0959          07A9                    ADDWF 0x29, F              
    2395     095A          0008                    RETURN                     
    2396     095B          1003                    BCF STATUS, 0x0            
    2397     095C          218D                    CALL 0x18D                 
    2398     095D          1683                    BSF STATUS, 0x5            
    2399     095E          0ACE                    INCF 0x4E, F               
    2400     095F          1283                    BCF STATUS, 0x5            
    2401     0960          0829                    MOVF 0x29, W               
    2402     0961          1683                    BSF STATUS, 0x5            
    2403     0962          00CD                    MOVWF 0x4D                 
    2404     0963          102E                    BCF 0x2E, 0x0              
    2405     0964          3007                    MOVLW 0x7                  
    2406     0965          00AF                    MOVWF 0x2F                 
    2407     0966          192E                    BTFSC 0x2E, 0x2            
    2408     0967          142E                    BSF 0x2E, 0x0              
    2409     0968          19AE                    BTFSC 0x2E, 0x3            
    2410     0969          0AAF                    INCF 0x2F, F               
    2411     096A          1003                    BCF STATUS, 0x0            
    2412     096B          0CCD                    RRF 0x4D, F                
    2413     096C          1C03                    BTFSS STATUS, 0x0          
    2414     096D          2970                    GOTO 0x170                 
    2415     096E          3001                    MOVLW 0x1                  
    2416     096F          06AE                    XORWF 0x2E, F              
    2417     0970          218D                    CALL 0x18D                 
    2418     0971          0ACE                    INCF 0x4E, F               
    2419     0972          0BAF                    DECFSZ 0x2F, F             
    2420     0973          296A                    GOTO 0x16A                 
    2421     0974          1CAE                    BTFSS 0x2E, 0x1            
    2422     0975          2979                    GOTO 0x179                 
    2423     0976          0C2E                    RRF 0x2E, W                
    2424     0977          218D                    CALL 0x18D                 
    2425     0978          0ACE                    INCF 0x4E, F               
    2426     0979          1403                    BSF STATUS, 0x0            
    2427     097A          218D                    CALL 0x18D                 
    2428     097B          0ACE                    INCF 0x4E, F               
    2429     097C          1403                    BSF STATUS, 0x0            
    2430     097D          218D                    CALL 0x18D                 
    2431     097E          0ACE                    INCF 0x4E, F               
    2432     097F          1283                    BCF STATUS, 0x5            
    2433     0980          0008                    RETURN                     
    2434     0981          3050                    MOVLW 0x50                 
    2435     0982          0084                    MOVWF FSR                  
    2436     0983          1003                    BCF STATUS, 0x0            
    2437     0984          0C28                    RRF 0x28, W                
    2438     0985          0784                    ADDWF FSR, F               
    2439     0986          0800                    MOVF INDF, W               
    2440     0987          1C28                    BTFSS 0x28, 0x0            
    2441     0988          0E00                    SWAPF INDF, W              
    2442     0989          390F                    ANDLW 0xF                  
    2443     098A          00A9                    MOVWF 0x29                 
    2444     098B          03A8                    DECF 0x28, F               
    2445     098C          0008                    RETURN                     
    2446     098D          307F                    MOVLW 0x7F                 
    2447     098E          0084                    MOVWF FSR                  
    2448     098F          0C80                    RRF INDF, F                
    2449     0990          0384                    DECF FSR, F                
    2450     0991          0C80                    RRF INDF, F                
    2451     0992          0008                    RETURN                     
    2452     0993          1683                    BSF STATUS, 0x5            
    2453     0994          30F0                    MOVLW 0xF0                 
    2454     0995          05AE                    ANDWF 0x2E, F              
    2455     0996          01CE                    CLRF 0x4E                  
    2456     0997          3009                    MOVLW 0x9                  
    2457     0998          008A                    MOVWF PCLATH               
    2458     0999          0835                    MOVF 0x35, W               
    2459     099A          3903                    ANDLW 0x3                  
    2460     099B          0782                    ADDWF PCL, F               
    2461     099C          29A2                    GOTO 0x1A2                 
    2462     099D          29A4                    GOTO 0x1A4                 
    2463     099E          29A7                    GOTO 0x1A7                 
    2464     099F          29A0                    GOTO 0x1A0                 
    2465     09A0          15AE                    BSF 0x2E, 0x3              
    2466     09A1          29A7                    GOTO 0x1A7                 
    2467     09A2          14AE                    BSF 0x2E, 0x1              
    2468     09A3          29A7                    GOTO 0x1A7                 
    2469     09A4          14AE                    BSF 0x2E, 0x1              
    2470     09A5          152E                    BSF 0x2E, 0x2              
    2471     09A6          29A7                    GOTO 0x1A7                 
    2472     09A7          1D35                    BTFSS 0x35, 0x2            
    2473     09A8          132E                    BCF 0x2E, 0x6              
    2474     09A9          1935                    BTFSC 0x35, 0x2            
    2475     09AA          172E                    BSF 0x2E, 0x6              
    2476     09AB          1283                    BCF STATUS, 0x5            
    2477     09AC          01A8                    CLRF 0x28                  
    2478     09AD          01A9                    CLRF 0x29                  
    2479     09AE          01AA                    CLRF 0x2A                  
    2480     09AF          0008                    RETURN                     
    2481     09B0          1683                    BSF STATUS, 0x5            
    2482     09B1          1C5E                    BTFSS 0x5E, 0x0            
    2483     09B2          29B6                    GOTO 0x1B6                 
    2484     09B3          1283                    BCF STATUS, 0x5            
    2485     09B4          3001                    MOVLW 0x1                  
    2486     09B5          00B1                    MOVWF 0x31                 
    2487     09B6          1283                    BCF STATUS, 0x5            
    2488     09B7          0008                    RETURN                     
    2489     09B8          13A3                    BCF 0x23, 0x7              
    2490     09B9          16A3                    BSF 0x23, 0x5              
    2491     09BA          30D0                    MOVLW 0xD0                 
    2492     09BB          00B8                    MOVWF 0x38                 
    2493     09BC          3000                    MOVLW 0x0                  
    2494     09BD          00B7                    MOVWF 0x37                 
    2495     09BE          3074                    MOVLW 0x74                 
    2496     09BF          00BA                    MOVWF 0x3A                 
    2497     09C0          3000                    MOVLW 0x0                  
    2498     09C1          00B9                    MOVWF 0x39                 
    2499     09C2          30C1                    MOVLW 0xC1                 
    2500     09C3          05A6                    ANDWF 0x26, F              
    2501     09C4          3006                    MOVLW 0x6                  
    2502     09C5          04A6                    IORWF 0x26, F              
    2503     09C6          3055                    MOVLW 0x55                 
    2504     09C7          00BD                    MOVWF 0x3D                 
    2505     09C8          3000                    MOVLW 0x0                  
    2506     09C9          00BC                    MOVWF 0x3C                 
    2507     09CA          118A                    BCF PCLATH, 0x3            
    2508     09CB          120A                    BCF PCLATH, 0x4            
    2509     09CC          2CEE                    GOTO 0x4EE                 
    2510     09CD          17A3                    BSF 0x23, 0x7              
    2511     09CE          1683                    BSF STATUS, 0x5            
    2512     09CF          0831                    MOVF 0x31, W               
    2513     09D0          1283                    BCF STATUS, 0x5            
    2514     09D1          3980                    ANDLW 0x80                 
    2515     09D2          1D03                    BTFSS STATUS, 0x2          
    2516     09D3          13A3                    BCF 0x23, 0x7              
    2517     09D4          16A3                    BSF 0x23, 0x5              
    2518     09D5          30D0                    MOVLW 0xD0                 
    2519     09D6          00B8                    MOVWF 0x38                 
    2520     09D7          3000                    MOVLW 0x0                  
    2521     09D8          00B7                    MOVWF 0x37                 
    2522     09D9          3074                    MOVLW 0x74                 
    2523     09DA          00BA                    MOVWF 0x3A                 
    2524     09DB          3000                    MOVLW 0x0                  
    2525     09DC          00B9                    MOVWF 0x39                 
    2526     09DD          30C1                    MOVLW 0xC1                 
    2527     09DE          05A6                    ANDWF 0x26, F              
    2528     09DF          3006                    MOVLW 0x6                  
    2529     09E0          04A6                    IORWF 0x26, F              
    2530     09E1          3056                    MOVLW 0x56                 
    2531     09E2          00BD                    MOVWF 0x3D                 
    2532     09E3          304D                    MOVLW 0x4D                 
    2533     09E4          00BC                    MOVWF 0x3C                 
    2534     09E5          118A                    BCF PCLATH, 0x3            
    2535     09E6          120A                    BCF PCLATH, 0x4            
    2536     09E7          2CEE                    GOTO 0x4EE                 
    2537     09E8          17A3                    BSF 0x23, 0x7              
    2538     09E9          1683                    BSF STATUS, 0x5            
    2539     09EA          0831                    MOVF 0x31, W               
    2540     09EB          1283                    BCF STATUS, 0x5            
    2541     09EC          3980                    ANDLW 0x80                 
    2542     09ED          1D03                    BTFSS STATUS, 0x2          
    2543     09EE          13A3                    BCF 0x23, 0x7              
    2544     09EF          16A3                    BSF 0x23, 0x5              
    2545     09F0          30D0                    MOVLW 0xD0                 
    2546     09F1          00B8                    MOVWF 0x38                 
    2547     09F2          3000                    MOVLW 0x0                  
    2548     09F3          00B7                    MOVWF 0x37                 
    2549     09F4          3074                    MOVLW 0x74                 
    2550     09F5          00BA                    MOVWF 0x3A                 
    2551     09F6          3000                    MOVLW 0x0                  
    2552     09F7          00B9                    MOVWF 0x39                 
    2553     09F8          30C1                    MOVLW 0xC1                 
    2554     09F9          05A6                    ANDWF 0x26, F              
    2555     09FA          3006                    MOVLW 0x6                  
    2556     09FB          04A6                    IORWF 0x26, F              
    2557     09FC          3056                    MOVLW 0x56                 
    2558     09FD          00BD                    MOVWF 0x3D                 
    2559     09FE          304E                    MOVLW 0x4E                 
    2560     09FF          00BC                    MOVWF 0x3C                 
    2561     0A00          118A                    BCF PCLATH, 0x3            
    2562     0A01          120A                    BCF PCLATH, 0x4            
    2563     0A02          2CEE                    GOTO 0x4EE                 
    2564     0A03          17A3                    BSF 0x23, 0x7              
    2565     0A04          1683                    BSF STATUS, 0x5            
    2566     0A05          0831                    MOVF 0x31, W               
    2567     0A06          1283                    BCF STATUS, 0x5            
    2568     0A07          3980                    ANDLW 0x80                 
    2569     0A08          1D03                    BTFSS STATUS, 0x2          
    2570     0A09          13A3                    BCF 0x23, 0x7              
    2571     0A0A          16A3                    BSF 0x23, 0x5              
    2572     0A0B          30D0                    MOVLW 0xD0                 
    2573     0A0C          00B8                    MOVWF 0x38                 
    2574     0A0D          3000                    MOVLW 0x0                  
    2575     0A0E          00B7                    MOVWF 0x37                 
    2576     0A0F          3074                    MOVLW 0x74                 
    2577     0A10          00BA                    MOVWF 0x3A                 
    2578     0A11          3000                    MOVLW 0x0                  
    2579     0A12          00B9                    MOVWF 0x39                 
    2580     0A13          30C1                    MOVLW 0xC1                 
    2581     0A14          05A6                    ANDWF 0x26, F              
    2582     0A15          3006                    MOVLW 0x6                  
    2583     0A16          04A6                    IORWF 0x26, F              
    2584     0A17          3055                    MOVLW 0x55                 
    2585     0A18          00BD                    MOVWF 0x3D                 
    2586     0A19          3000                    MOVLW 0x0                  
    2587     0A1A          00BC                    MOVWF 0x3C                 
    2588     0A1B          118A                    BCF PCLATH, 0x3            
    2589     0A1C          120A                    BCF PCLATH, 0x4            
    2590     0A1D          2CEE                    GOTO 0x4EE                 
    2591     0A1E          13A3                    BCF 0x23, 0x7              
    2592     0A1F          16A3                    BSF 0x23, 0x5              
    2593     0A20          30D0                    MOVLW 0xD0                 
    2594     0A21          00B8                    MOVWF 0x38                 
    2595     0A22          3000                    MOVLW 0x0                  
    2596     0A23          00B7                    MOVWF 0x37                 
    2597     0A24          3074                    MOVLW 0x74                 
    2598     0A25          00BA                    MOVWF 0x3A                 
    2599     0A26          3000                    MOVLW 0x0                  
    2600     0A27          00B9                    MOVWF 0x39                 
    2601     0A28          30C1                    MOVLW 0xC1                 
    2602     0A29          05A6                    ANDWF 0x26, F              
    2603     0A2A          3006                    MOVLW 0x6                  
    2604     0A2B          04A6                    IORWF 0x26, F              
    2605     0A2C          3055                    MOVLW 0x55                 
    2606     0A2D          00BD                    MOVWF 0x3D                 
    2607     0A2E          30BE                    MOVLW 0xBE                 
    2608     0A2F          00BC                    MOVWF 0x3C                 
    2609     0A30          118A                    BCF PCLATH, 0x3            
    2610     0A31          120A                    BCF PCLATH, 0x4            
    2611     0A32          2CEE                    GOTO 0x4EE                 
    2612     0A33          083C                    MOVF 0x3C, W               
    2613     0A34          1903                    BTFSC STATUS, 0x2          
    2614     0A35          0008                    RETURN                     
    2615     0A36          083C                    MOVF 0x3C, W               
    2616     0A37          3C4E                    SUBLW 0x4E                 
    2617     0A38          1903                    BTFSC STATUS, 0x2          
    2618     0A39          2A55                    GOTO 0x255                 
    2619     0A3A          083C                    MOVF 0x3C, W               
    2620     0A3B          3CBE                    SUBLW 0xBE                 
    2621     0A3C          1903                    BTFSC STATUS, 0x2          
    2622     0A3D          2A5A                    GOTO 0x25A                 
    2623     0A3E          083C                    MOVF 0x3C, W               
    2624     0A3F          3C4D                    SUBLW 0x4D                 
    2625     0A40          1D03                    BTFSS STATUS, 0x2          
    2626     0A41          0008                    RETURN                     
    2627     0A42          229A                    CALL 0x29A                 
    2628     0A43          0871                    MOVF 0x71, W               
    2629     0A44          00F0                    MOVWF 0x70                 
    2630     0A45          0872                    MOVF 0x72, W               
    2631     0A46          00F1                    MOVWF 0x71                 
    2632     0A47          118A                    BCF PCLATH, 0x3            
    2633     0A48          120A                    BCF PCLATH, 0x4            
    2634     0A49          258E                    CALL 0x58E                 
    2635     0A4A          158A                    BSF PCLATH, 0x3            
    2636     0A4B          120A                    BCF PCLATH, 0x4            
    2637     0A4C          0850                    MOVF 0x50, W               
    2638     0A4D          00E0                    MOVWF 0x60                 
    2639     0A4E          0851                    MOVF 0x51, W               
    2640     0A4F          00E1                    MOVWF 0x61                 
    2641     0A50          0852                    MOVF 0x52, W               
    2642     0A51          39F0                    ANDLW 0xF0                 
    2643     0A52          3806                    IORLW 0x6                  
    2644     0A53          00E2                    MOVWF 0x62                 
    2645     0A54          0008                    RETURN                     
    2646     0A55          0862                    MOVF 0x62, W               
    2647     0A56          39F0                    ANDLW 0xF0                 
    2648     0A57          3806                    IORLW 0x6                  
    2649     0A58          00E2                    MOVWF 0x62                 
    2650     0A59          0008                    RETURN                     
    2651     0A5A          1683                    BSF STATUS, 0x5            
    2652     0A5B          1C5E                    BTFSS 0x5E, 0x0            
    2653     0A5C          2A5F                    GOTO 0x25F                 
    2654     0A5D          1283                    BCF STATUS, 0x5            
    2655     0A5E          0008                    RETURN                     
    2656     0A5F          1AB7                    BTFSC 0x37, 0x5            
    2657     0A60          2A65                    GOTO 0x265                 
    2658     0A61          1283                    BCF STATUS, 0x5            
    2659     0A62          1FDB                    BTFSS 0x5B, 0x7            
    2660     0A63          0008                    RETURN                     
    2661     0A64          13DB                    BCF 0x5B, 0x7              
    2662     0A65          1283                    BCF STATUS, 0x5            
    2663     0A66          118A                    BCF PCLATH, 0x3            
    2664     0A67          120A                    BCF PCLATH, 0x4            
    2665     0A68          26B0                    CALL 0x6B0                 
    2666     0A69          158A                    BSF PCLATH, 0x3            
    2667     0A6A          120A                    BCF PCLATH, 0x4            
    2668     0A6B          229A                    CALL 0x29A                 
    2669     0A6C          3000                    MOVLW 0x0                  
    2670     0A6D          00BE                    MOVWF 0x3E                 
    2671     0A6E          300A                    MOVLW 0xA                  
    2672     0A6F          00BD                    MOVWF 0x3D                 
    2673     0A70          118A                    BCF PCLATH, 0x3            
    2674     0A71          120A                    BCF PCLATH, 0x4            
    2675     0A72          258E                    CALL 0x58E                 
    2676     0A73          158A                    BSF PCLATH, 0x3            
    2677     0A74          120A                    BCF PCLATH, 0x4            
    2678     0A75          118A                    BCF PCLATH, 0x3            
    2679     0A76          120A                    BCF PCLATH, 0x4            
    2680     0A77          270A                    CALL 0x70A                 
    2681     0A78          158A                    BSF PCLATH, 0x3            
    2682     0A79          120A                    BCF PCLATH, 0x4            
    2683     0A7A          118A                    BCF PCLATH, 0x3            
    2684     0A7B          120A                    BCF PCLATH, 0x4            
    2685     0A7C          25A0                    CALL 0x5A0                 
    2686     0A7D          158A                    BSF PCLATH, 0x3            
    2687     0A7E          120A                    BCF PCLATH, 0x4            
    2688     0A7F          1683                    BSF STATUS, 0x5            
    2689     0A80          1EB7                    BTFSS 0x37, 0x5            
    2690     0A81          2A93                    GOTO 0x293                 
    2691     0A82          1283                    BCF STATUS, 0x5            
    2692     0A83          3001                    MOVLW 0x1                  
    2693     0A84          00B2                    MOVWF 0x32                 
    2694     0A85          085C                    MOVF 0x5C, W               
    2695     0A86          00F0                    MOVWF 0x70                 
    2696     0A87          118A                    BCF PCLATH, 0x3            
    2697     0A88          120A                    BCF PCLATH, 0x4            
    2698     0A89          258E                    CALL 0x58E                 
    2699     0A8A          158A                    BSF PCLATH, 0x3            
    2700     0A8B          120A                    BCF PCLATH, 0x4            
    2701     0A8C          3003                    MOVLW 0x3                  
    2702     0A8D          00BD                    MOVWF 0x3D                 
    2703     0A8E          118A                    BCF PCLATH, 0x3            
    2704     0A8F          120A                    BCF PCLATH, 0x4            
    2705     0A90          25A0                    CALL 0x5A0                 
    2706     0A91          158A                    BSF PCLATH, 0x3            
    2707     0A92          120A                    BCF PCLATH, 0x4            
    2708     0A93          1283                    BCF STATUS, 0x5            
    2709     0A94          118A                    BCF PCLATH, 0x3            
    2710     0A95          120A                    BCF PCLATH, 0x4            
    2711     0A96          257B                    CALL 0x57B                 
    2712     0A97          158A                    BSF PCLATH, 0x3            
    2713     0A98          120A                    BCF PCLATH, 0x4            
    2714     0A99          0008                    RETURN                     
    2715     0A9A          3058                    MOVLW 0x58                 
    2716     0A9B          0084                    MOVWF FSR                  
    2717     0A9C          1284                    BCF FSR, 0x5               
    2718     0A9D          1584                    BSF FSR, 0x3               
    2719     0A9E          0800                    MOVF INDF, W               
    2720     0A9F          1684                    BSF FSR, 0x5               
    2721     0AA0          1184                    BCF FSR, 0x3               
    2722     0AA1          0080                    MOVWF INDF                 
    2723     0AA2          0A84                    INCF FSR, F                
    2724     0AA3          1D84                    BTFSS FSR, 0x3             
    2725     0AA4          2A9C                    GOTO 0x29C                 
    2726     0AA5          0008                    RETURN                     
    2727     0AA6          17A3                    BSF 0x23, 0x7              
    2728     0AA7          1683                    BSF STATUS, 0x5            
    2729     0AA8          0831                    MOVF 0x31, W               
    2730     0AA9          1283                    BCF STATUS, 0x5            
    2731     0AAA          3980                    ANDLW 0x80                 
    2732     0AAB          1D03                    BTFSS STATUS, 0x2          
    2733     0AAC          13A3                    BCF 0x23, 0x7              
    2734     0AAD          12A3                    BCF 0x23, 0x5              
    2735     0AAE          3020                    MOVLW 0x20                 
    2736     0AAF          00B3                    MOVWF 0x33                 
    2737     0AB0          300C                    MOVLW 0xC                  
    2738     0AB1          00BA                    MOVWF 0x3A                 
    2739     0AB2          3000                    MOVLW 0x0                  
    2740     0AB3          00B9                    MOVWF 0x39                 
    2741     0AB4          3017                    MOVLW 0x17                 
    2742     0AB5          00B8                    MOVWF 0x38                 
    2743     0AB6          3000                    MOVLW 0x0                  
    2744     0AB7          00B7                    MOVWF 0x37                 
    2745     0AB8          3040                    MOVLW 0x40                 
    2746     0AB9          00A5                    MOVWF 0x25                 
    2747     0ABA          30FC                    MOVLW 0xFC                 
    2748     0ABB          05A4                    ANDWF 0x24, F              
    2749     0ABC          3002                    MOVLW 0x2                  
    2750     0ABD          04A4                    IORWF 0x24, F              
    2751     0ABE          2B8E                    GOTO 0x38E                 
    2752     0ABF          17A3                    BSF 0x23, 0x7              
    2753     0AC0          1683                    BSF STATUS, 0x5            
    2754     0AC1          0831                    MOVF 0x31, W               
    2755     0AC2          1283                    BCF STATUS, 0x5            
    2756     0AC3          3980                    ANDLW 0x80                 
    2757     0AC4          1D03                    BTFSS STATUS, 0x2          
    2758     0AC5          13A3                    BCF 0x23, 0x7              
    2759     0AC6          12A3                    BCF 0x23, 0x5              
    2760     0AC7          3020                    MOVLW 0x20                 
    2761     0AC8          00B3                    MOVWF 0x33                 
    2762     0AC9          3017                    MOVLW 0x17                 
    2763     0ACA          00BA                    MOVWF 0x3A                 
    2764     0ACB          3000                    MOVLW 0x0                  
    2765     0ACC          00B9                    MOVWF 0x39                 
    2766     0ACD          305C                    MOVLW 0x5C                 
    2767     0ACE          00B8                    MOVWF 0x38                 
    2768     0ACF          3000                    MOVLW 0x0                  
    2769     0AD0          00B7                    MOVWF 0x37                 
    2770     0AD1          3040                    MOVLW 0x40                 
    2771     0AD2          00A5                    MOVWF 0x25                 
    2772     0AD3          30FC                    MOVLW 0xFC                 
    2773     0AD4          05A4                    ANDWF 0x24, F              
    2774     0AD5          3002                    MOVLW 0x2                  
    2775     0AD6          04A4                    IORWF 0x24, F              
    2776     0AD7          2B8E                    GOTO 0x38E                 
    2777     0AD8          17A3                    BSF 0x23, 0x7              
    2778     0AD9          1683                    BSF STATUS, 0x5            
    2779     0ADA          0831                    MOVF 0x31, W               
    2780     0ADB          1283                    BCF STATUS, 0x5            
    2781     0ADC          3980                    ANDLW 0x80                 
    2782     0ADD          1D03                    BTFSS STATUS, 0x2          
    2783     0ADE          13A3                    BCF 0x23, 0x7              
    2784     0ADF          12A3                    BCF 0x23, 0x5              
    2785     0AE0          3020                    MOVLW 0x20                 
    2786     0AE1          00B3                    MOVWF 0x33                 
    2787     0AE2          300C                    MOVLW 0xC                  
    2788     0AE3          00BA                    MOVWF 0x3A                 
    2789     0AE4          3000                    MOVLW 0x0                  
    2790     0AE5          00B9                    MOVWF 0x39                 
    2791     0AE6          30CE                    MOVLW 0xCE                 
    2792     0AE7          00B8                    MOVWF 0x38                 
    2793     0AE8          3001                    MOVLW 0x1                  
    2794     0AE9          00B7                    MOVWF 0x37                 
    2795     0AEA          3007                    MOVLW 0x7                  
    2796     0AEB          00A5                    MOVWF 0x25                 
    2797     0AEC          30FC                    MOVLW 0xFC                 
    2798     0AED          05A4                    ANDWF 0x24, F              
    2799     0AEE          3002                    MOVLW 0x2                  
    2800     0AEF          04A4                    IORWF 0x24, F              
    2801     0AF0          2B8E                    GOTO 0x38E                 
    2802     0AF1          17A3                    BSF 0x23, 0x7              
    2803     0AF2          1683                    BSF STATUS, 0x5            
    2804     0AF3          0831                    MOVF 0x31, W               
    2805     0AF4          1283                    BCF STATUS, 0x5            
    2806     0AF5          3980                    ANDLW 0x80                 
    2807     0AF6          1D03                    BTFSS STATUS, 0x2          
    2808     0AF7          13A3                    BCF 0x23, 0x7              
    2809     0AF8          12A3                    BCF 0x23, 0x5              
    2810     0AF9          3019                    MOVLW 0x19                 
    2811     0AFA          00B3                    MOVWF 0x33                 
    2812     0AFB          300C                    MOVLW 0xC                  
    2813     0AFC          00BA                    MOVWF 0x3A                 
    2814     0AFD          3000                    MOVLW 0x0                  
    2815     0AFE          00B9                    MOVWF 0x39                 
    2816     0AFF          30B5                    MOVLW 0xB5                 
    2817     0B00          00B8                    MOVWF 0x38                 
    2818     0B01          3002                    MOVLW 0x2                  
    2819     0B02          00B7                    MOVWF 0x37                 
    2820     0B03          30D6                    MOVLW 0xD6                 
    2821     0B04          00A5                    MOVWF 0x25                 
    2822     0B05          30FC                    MOVLW 0xFC                 
    2823     0B06          05A4                    ANDWF 0x24, F              
    2824     0B07          3002                    MOVLW 0x2                  
    2825     0B08          04A4                    IORWF 0x24, F              
    2826     0B09          3018                    MOVLW 0x18                 
    2827     0B0A          00BB                    MOVWF 0x3B                 
    2828     0B0B          30C8                    MOVLW 0xC8                 
    2829     0B0C          00BC                    MOVWF 0x3C                 
    2830     0B0D          2B8E                    GOTO 0x38E                 
    2831     0B0E          17A3                    BSF 0x23, 0x7              
    2832     0B0F          1683                    BSF STATUS, 0x5            
    2833     0B10          0831                    MOVF 0x31, W               
    2834     0B11          1283                    BCF STATUS, 0x5            
    2835     0B12          3980                    ANDLW 0x80                 
    2836     0B13          1D03                    BTFSS STATUS, 0x2          
    2837     0B14          13A3                    BCF 0x23, 0x7              
    2838     0B15          12A3                    BCF 0x23, 0x5              
    2839     0B16          3024                    MOVLW 0x24                 
    2840     0B17          00B3                    MOVWF 0x33                 
    2841     0B18          300C                    MOVLW 0xC                  
    2842     0B19          00BA                    MOVWF 0x3A                 
    2843     0B1A          3000                    MOVLW 0x0                  
    2844     0B1B          00B9                    MOVWF 0x39                 
    2845     0B1C          3015                    MOVLW 0x15                 
    2846     0B1D          00B8                    MOVWF 0x38                 
    2847     0B1E          3001                    MOVLW 0x1                  
    2848     0B1F          00B7                    MOVWF 0x37                 
    2849     0B20          30C2                    MOVLW 0xC2                 
    2850     0B21          00A5                    MOVWF 0x25                 
    2851     0B22          30FC                    MOVLW 0xFC                 
    2852     0B23          05A4                    ANDWF 0x24, F              
    2853     0B24          3002                    MOVLW 0x2                  
    2854     0B25          04A4                    IORWF 0x24, F              
    2855     0B26          3004                    MOVLW 0x4                  
    2856     0B27          00BC                    MOVWF 0x3C                 
    2857     0B28          2B8E                    GOTO 0x38E                 
    2858     0B29          13A3                    BCF 0x23, 0x7              
    2859     0B2A          16A3                    BSF 0x23, 0x5              
    2860     0B2B          3030                    MOVLW 0x30                 
    2861     0B2C          00B3                    MOVWF 0x33                 
    2862     0B2D          3017                    MOVLW 0x17                 
    2863     0B2E          00BA                    MOVWF 0x3A                 
    2864     0B2F          3000                    MOVLW 0x0                  
    2865     0B30          00B9                    MOVWF 0x39                 
    2866     0B31          305C                    MOVLW 0x5C                 
    2867     0B32          00B8                    MOVWF 0x38                 
    2868     0B33          3000                    MOVLW 0x0                  
    2869     0B34          00B7                    MOVWF 0x37                 
    2870     0B35          3042                    MOVLW 0x42                 
    2871     0B36          00A5                    MOVWF 0x25                 
    2872     0B37          30FC                    MOVLW 0xFC                 
    2873     0B38          05A4                    ANDWF 0x24, F              
    2874     0B39          3002                    MOVLW 0x2                  
    2875     0B3A          04A4                    IORWF 0x24, F              
    2876     0B3B          2B8E                    GOTO 0x38E                 
    2877     0B3C          17A3                    BSF 0x23, 0x7              
    2878     0B3D          1683                    BSF STATUS, 0x5            
    2879     0B3E          0831                    MOVF 0x31, W               
    2880     0B3F          1283                    BCF STATUS, 0x5            
    2881     0B40          3980                    ANDLW 0x80                 
    2882     0B41          1D03                    BTFSS STATUS, 0x2          
    2883     0B42          13A3                    BCF 0x23, 0x7              
    2884     0B43          12A3                    BCF 0x23, 0x5              
    2885     0B44          3019                    MOVLW 0x19                 
    2886     0B45          00B3                    MOVWF 0x33                 
    2887     0B46          300C                    MOVLW 0xC                  
    2888     0B47          00BA                    MOVWF 0x3A                 
    2889     0B48          3000                    MOVLW 0x0                  
    2890     0B49          00B9                    MOVWF 0x39                 
    2891     0B4A          3068                    MOVLW 0x68                 
    2892     0B4B          00B8                    MOVWF 0x38                 
    2893     0B4C          3000                    MOVLW 0x0                  
    2894     0B4D          00B7                    MOVWF 0x37                 
    2895     0B4E          3056                    MOVLW 0x56                 
    2896     0B4F          00A5                    MOVWF 0x25                 
    2897     0B50          30FC                    MOVLW 0xFC                 
    2898     0B51          05A4                    ANDWF 0x24, F              
    2899     0B52          3002                    MOVLW 0x2                  
    2900     0B53          04A4                    IORWF 0x24, F              
    2901     0B54          3018                    MOVLW 0x18                 
    2902     0B55          00BB                    MOVWF 0x3B                 
    2903     0B56          2B8E                    GOTO 0x38E                 
    2904     0B57          13A3                    BCF 0x23, 0x7              
    2905     0B58          16A3                    BSF 0x23, 0x5              
    2906     0B59          3028                    MOVLW 0x28                 
    2907     0B5A          00B3                    MOVWF 0x33                 
    2908     0B5B          3017                    MOVLW 0x17                 
    2909     0B5C          00BA                    MOVWF 0x3A                 
    2910     0B5D          3000                    MOVLW 0x0                  
    2911     0B5E          00B9                    MOVWF 0x39                 
    2912     0B5F          305C                    MOVLW 0x5C                 
    2913     0B60          00B8                    MOVWF 0x38                 
    2914     0B61          3000                    MOVLW 0x0                  
    2915     0B62          00B7                    MOVWF 0x37                 
    2916     0B63          30C0                    MOVLW 0xC0                 
    2917     0B64          00A5                    MOVWF 0x25                 
    2918     0B65          30FC                    MOVLW 0xFC                 
    2919     0B66          05A4                    ANDWF 0x24, F              
    2920     0B67          3000                    MOVLW 0x0                  
    2921     0B68          04A4                    IORWF 0x24, F              
    2922     0B69          308E                    MOVLW 0x8E                 
    2923     0B6A          00BC                    MOVWF 0x3C                 
    2924     0B6B          2B8E                    GOTO 0x38E                 
    2925     0B6C          083C                    MOVF 0x3C, W               
    2926     0B6D          3C04                    SUBLW 0x4                  
    2927     0B6E          1903                    BTFSC STATUS, 0x2          
    2928     0B6F          2379                    CALL 0x379                 
    2929     0B70          083C                    MOVF 0x3C, W               
    2930     0B71          3CC8                    SUBLW 0xC8                 
    2931     0B72          1903                    BTFSC STATUS, 0x2          
    2932     0B73          2381                    CALL 0x381                 
    2933     0B74          083C                    MOVF 0x3C, W               
    2934     0B75          3C8E                    SUBLW 0x8E                 
    2935     0B76          1903                    BTFSC STATUS, 0x2          
    2936     0B77          2383                    CALL 0x383                 
    2937     0B78          0008                    RETURN                     
    2938     0B79          1BF3                    BTFSC 0x73, 0x7            
    2939     0B7A          15F4                    BSF 0x74, 0x3              
    2940     0B7B          1FF3                    BTFSS 0x73, 0x7            
    2941     0B7C          11F4                    BCF 0x74, 0x3              
    2942     0B7D          13F3                    BCF 0x73, 0x7              
    2943     0B7E          30F8                    MOVLW 0xF8                 
    2944     0B7F          05F4                    ANDWF 0x74, F              
    2945     0B80          0008                    RETURN                     
    2946     0B81          23CE                    CALL 0x3CE                 
    2947     0B82          0008                    RETURN                     
    2948     0B83          0875                    MOVF 0x75, W               
    2949     0B84          00B3                    MOVWF 0x33                 
    2950     0B85          3C28                    SUBLW 0x28                 
    2951     0B86          1C03                    BTFSS STATUS, 0x0          
    2952     0B87          2B8B                    GOTO 0x38B                 
    2953     0B88          08B3                    MOVF 0x33, F               
    2954     0B89          1D03                    BTFSS STATUS, 0x2          
    2955     0B8A          2B8D                    GOTO 0x38D                 
    2956     0B8B          3028                    MOVLW 0x28                 
    2957     0B8C          00B3                    MOVWF 0x33                 
    2958     0B8D          0008                    RETURN                     
    2959     0B8E          1683                    BSF STATUS, 0x5            
    2960     0B8F          185E                    BTFSC 0x5E, 0x0            
    2961     0B90          2436                    CALL 0x436                 
    2962     0B91          1283                    BCF STATUS, 0x5            
    2963     0B92          1BA5                    BTFSC 0x25, 0x7            
    2964     0B93          236C                    CALL 0x36C                 
    2965     0B94          23D8                    CALL 0x3D8                 
    2966     0B95          1B25                    BTFSC 0x25, 0x6            
    2967     0B96          2422                    CALL 0x422                 
    2968     0B97          1825                    BTFSC 0x25, 0x0            
    2969     0B98          23A3                    CALL 0x3A3                 
    2970     0B99          1925                    BTFSC 0x25, 0x2            
    2971     0B9A          23AE                    CALL 0x3AE                 
    2972     0B9B          1840                    BTFSC 0x40, 0x0            
    2973     0B9C          23BB                    CALL 0x3BB                 
    2974     0B9D          118A                    BCF PCLATH, 0x3            
    2975     0B9E          120A                    BCF PCLATH, 0x4            
    2976     0B9F          260F                    CALL 0x60F                 
    2977     0BA0          158A                    BSF PCLATH, 0x3            
    2978     0BA1          120A                    BCF PCLATH, 0x4            
    2979     0BA2          284F                    GOTO 0x4F                  
    2980     0BA3          118A                    BCF PCLATH, 0x3            
    2981     0BA4          160A                    BSF PCLATH, 0x4            
    2982     0BA5          2334                    CALL 0x334                 
    2983     0BA6          158A                    BSF PCLATH, 0x3            
    2984     0BA7          120A                    BCF PCLATH, 0x4            
    2985     0BA8          1CA5                    BTFSS 0x25, 0x1            
    2986     0BA9          1070                    BCF 0x70, 0x0              
    2987     0BAA          18A5                    BTFSC 0x25, 0x1            
    2988     0BAB          1470                    BSF 0x70, 0x0              
    2989     0BAC          0AB3                    INCF 0x33, F               
    2990     0BAD          0008                    RETURN                     
    2991     0BAE          2422                    CALL 0x422                 
    2992     0BAF          118A                    BCF PCLATH, 0x3            
    2993     0BB0          160A                    BSF PCLATH, 0x4            
    2994     0BB1          2334                    CALL 0x334                 
    2995     0BB2          158A                    BSF PCLATH, 0x3            
    2996     0BB3          120A                    BCF PCLATH, 0x4            
    2997     0BB4          1DA5                    BTFSS 0x25, 0x3            
    2998     0BB5          1070                    BCF 0x70, 0x0              
    2999     0BB6          19A5                    BTFSC 0x25, 0x3            
    3000     0BB7          1470                    BSF 0x70, 0x0              
    3001     0BB8          0AB3                    INCF 0x33, F               
    3002     0BB9          2422                    CALL 0x422                 
    3003     0BBA          0008                    RETURN                     
    3004     0BBB          1683                    BSF STATUS, 0x5            
    3005     0BBC          1C5E                    BTFSS 0x5E, 0x0            
    3006     0BBD          2BC0                    GOTO 0x3C0                 
    3007     0BBE          1283                    BCF STATUS, 0x5            
    3008     0BBF          0008                    RETURN                     
    3009     0BC0          1283                    BCF STATUS, 0x5            
    3010     0BC1          2422                    CALL 0x422                 
    3011     0BC2          118A                    BCF PCLATH, 0x3            
    3012     0BC3          160A                    BSF PCLATH, 0x4            
    3013     0BC4          2334                    CALL 0x334                 
    3014     0BC5          158A                    BSF PCLATH, 0x3            
    3015     0BC6          120A                    BCF PCLATH, 0x4            
    3016     0BC7          1C26                    BTFSS 0x26, 0x0            
    3017     0BC8          1070                    BCF 0x70, 0x0              
    3018     0BC9          1826                    BTFSC 0x26, 0x0            
    3019     0BCA          1470                    BSF 0x70, 0x0              
    3020     0BCB          0AB3                    INCF 0x33, F               
    3021     0BCC          2422                    CALL 0x422                 
    3022     0BCD          0008                    RETURN                     
    3023     0BCE          1683                    BSF STATUS, 0x5            
    3024     0BCF          0832                    MOVF 0x32, W               
    3025     0BD0          1283                    BCF STATUS, 0x5            
    3026     0BD1          00A8                    MOVWF 0x28                 
    3027     0BD2          1FA8                    BTFSS 0x28, 0x7            
    3028     0BD3          0008                    RETURN                     
    3029     0BD4          16A5                    BSF 0x25, 0x5              
    3030     0BD5          1425                    BSF 0x25, 0x0              
    3031     0BD6          03B3                    DECF 0x33, F               
    3032     0BD7          0008                    RETURN                     
    3033     0BD8          083B                    MOVF 0x3B, W               
    3034     0BD9          3907                    ANDLW 0x7                  
    3035     0BDA          1A25                    BTFSC 0x25, 0x4            
    3036     0BDB          23E6                    CALL 0x3E6                 
    3037     0BDC          1EA5                    BTFSS 0x25, 0x5            
    3038     0BDD          2BE5                    GOTO 0x3E5                 
    3039     0BDE          083B                    MOVF 0x3B, W               
    3040     0BDF          00A8                    MOVWF 0x28                 
    3041     0BE0          0CA8                    RRF 0x28, F                
    3042     0BE1          0CA8                    RRF 0x28, F                
    3043     0BE2          0C28                    RRF 0x28, W                
    3044     0BE3          391F                    ANDLW 0x1F                 
    3045     0BE4          23FB                    CALL 0x3FB                 
    3046     0BE5          3401                    RETLW 0x1                  
    3047     0BE6          3E0C                    ADDLW 0xC                  
    3048     0BE7          00B4                    MOVWF 0x34                 
    3049     0BE8          118A                    BCF PCLATH, 0x3            
    3050     0BE9          120A                    BCF PCLATH, 0x4            
    3051     0BEA          26CE                    CALL 0x6CE                 
    3052     0BEB          158A                    BSF PCLATH, 0x3            
    3053     0BEC          120A                    BCF PCLATH, 0x4            
    3054     0BED          2412                    CALL 0x412                 
    3055     0BEE          18A4                    BTFSC 0x24, 0x1            
    3056     0BEF          3A01                    XORLW 0x1                  
    3057     0BF0          1CA4                    BTFSS 0x24, 0x1            
    3058     0BF1          3A00                    XORLW 0x0                  
    3059     0BF2          15A5                    BSF 0x25, 0x3              
    3060     0BF3          1903                    BTFSC STATUS, 0x2          
    3061     0BF4          11A5                    BCF 0x25, 0x3              
    3062     0BF5          118A                    BCF PCLATH, 0x3            
    3063     0BF6          120A                    BCF PCLATH, 0x4            
    3064     0BF7          26C4                    CALL 0x6C4                 
    3065     0BF8          158A                    BSF PCLATH, 0x3            
    3066     0BF9          120A                    BCF PCLATH, 0x4            
    3067     0BFA          3401                    RETLW 0x1                  
    3068     0BFB          3E09                    ADDLW 0x9                  
    3069     0BFC          00B4                    MOVWF 0x34                 
    3070     0BFD          2422                    CALL 0x422                 
    3071     0BFE          118A                    BCF PCLATH, 0x3            
    3072     0BFF          120A                    BCF PCLATH, 0x4            
    3073     0C00          26CE                    CALL 0x6CE                 
    3074     0C01          158A                    BSF PCLATH, 0x3            
    3075     0C02          120A                    BCF PCLATH, 0x4            
    3076     0C03          2412                    CALL 0x412                 
    3077     0C04          1824                    BTFSC 0x24, 0x0            
    3078     0C05          3A01                    XORLW 0x1                  
    3079     0C06          1C24                    BTFSS 0x24, 0x0            
    3080     0C07          3A00                    XORLW 0x0                  
    3081     0C08          14A5                    BSF 0x25, 0x1              
    3082     0C09          1903                    BTFSC STATUS, 0x2          
    3083     0C0A          10A5                    BCF 0x25, 0x1              
    3084     0C0B          118A                    BCF PCLATH, 0x3            
    3085     0C0C          120A                    BCF PCLATH, 0x4            
    3086     0C0D          26C4                    CALL 0x6C4                 
    3087     0C0E          158A                    BSF PCLATH, 0x3            
    3088     0C0F          120A                    BCF PCLATH, 0x4            
    3089     0C10          2422                    CALL 0x422                 
    3090     0C11          3401                    RETLW 0x1                  
    3091     0C12          306F                    MOVLW 0x6F                 
    3092     0C13          0084                    MOVWF FSR                  
    3093     0C14          0103                    CLRW                       
    3094     0C15          01B6                    CLRF 0x36                  
    3095     0C16          0A84                    INCF FSR, F                
    3096     0C17          15B6                    BSF 0x36, 0x3              
    3097     0C18          0700                    ADDWF INDF, W              
    3098     0C19          0C80                    RRF INDF, F                
    3099     0C1A          0BB4                    DECFSZ 0x34, F             
    3100     0C1B          2C1D                    GOTO 0x41D                 
    3101     0C1C          2C20                    GOTO 0x420                 
    3102     0C1D          0BB6                    DECFSZ 0x36, F             
    3103     0C1E          2C18                    GOTO 0x418                 
    3104     0C1F          2C16                    GOTO 0x416                 
    3105     0C20          3901                    ANDLW 0x1                  
    3106     0C21          0008                    RETURN                     
    3107     0C22          0833                    MOVF 0x33, W               
    3108     0C23          00B0                    MOVWF 0x30                 
    3109     0C24          118A                    BCF PCLATH, 0x3            
    3110     0C25          120A                    BCF PCLATH, 0x4            
    3111     0C26          26CE                    CALL 0x6CE                 
    3112     0C27          158A                    BSF PCLATH, 0x3            
    3113     0C28          120A                    BCF PCLATH, 0x4            
    3114     0C29          118A                    BCF PCLATH, 0x3            
    3115     0C2A          120A                    BCF PCLATH, 0x4            
    3116     0C2B          25CC                    CALL 0x5CC                 
    3117     0C2C          158A                    BSF PCLATH, 0x3            
    3118     0C2D          120A                    BCF PCLATH, 0x4            
    3119     0C2E          118A                    BCF PCLATH, 0x3            
    3120     0C2F          160A                    BSF PCLATH, 0x4            
    3121     0C30          2334                    CALL 0x334                 
    3122     0C31          158A                    BSF PCLATH, 0x3            
    3123     0C32          120A                    BCF PCLATH, 0x4            
    3124     0C33          0BB0                    DECFSZ 0x30, F             
    3125     0C34          2C29                    GOTO 0x429                 
    3126     0C35          3401                    RETLW 0x1                  
    3127     0C36          1283                    BCF STATUS, 0x5            
    3128     0C37          3008                    MOVLW 0x8                  
    3129     0C38          00B3                    MOVWF 0x33                 
    3130     0C39          3040                    MOVLW 0x40                 
    3131     0C3A          05A5                    ANDWF 0x25, F              
    3132     0C3B          30FC                    MOVLW 0xFC                 
    3133     0C3C          05A4                    ANDWF 0x24, F              
    3134     0C3D          01BB                    CLRF 0x3B                  
    3135     0C3E          01BC                    CLRF 0x3C                  
    3136     0C3F          0008                    RETURN                     
    3137     0C40          1683                    BSF STATUS, 0x5            
    3138     0C41          1D2D                    BTFSS 0x2D, 0x2            
    3139     0C42          0008                    RETURN                     
    3140     0C43          1283                    BCF STATUS, 0x5            
    3141     0C44          0840                    MOVF 0x40, W               
    3142     0C45          3CBD                    SUBLW 0xBD                 
    3143     0C46          1D03                    BTFSS STATUS, 0x2          
    3144     0C47          0008                    RETURN                     
    3145     0C48          1683                    BSF STATUS, 0x5            
    3146     0C49          1C2D                    BTFSS 0x2D, 0x0            
    3147     0C4A          2C54                    GOTO 0x454                 
    3148     0C4B          1283                    BCF STATUS, 0x5            
    3149     0C4C          118A                    BCF PCLATH, 0x3            
    3150     0C4D          120A                    BCF PCLATH, 0x4            
    3151     0C4E          2241                    CALL 0x241                 
    3152     0C4F          158A                    BSF PCLATH, 0x3            
    3153     0C50          120A                    BCF PCLATH, 0x4            
    3154     0C51          3C01                    SUBLW 0x1                  
    3155     0C52          1903                    BTFSC STATUS, 0x2          
    3156     0C53          0008                    RETURN                     
    3157     0C54          2496                    CALL 0x496                 
    3158     0C55          0064                    CLRWDT                     
    3159     0C56          1283                    BCF STATUS, 0x5            
    3160     0C57          118A                    BCF PCLATH, 0x3            
    3161     0C58          120A                    BCF PCLATH, 0x4            
    3162     0C59          224E                    CALL 0x24E                 
    3163     0C5A          158A                    BSF PCLATH, 0x3            
    3164     0C5B          120A                    BCF PCLATH, 0x4            
    3165     0C5C          1D03                    BTFSS STATUS, 0x2          
    3166     0C5D          2C7D                    GOTO 0x47D                 
    3167     0C5E          118A                    BCF PCLATH, 0x3            
    3168     0C5F          120A                    BCF PCLATH, 0x4            
    3169     0C60          225B                    CALL 0x25B                 
    3170     0C61          158A                    BSF PCLATH, 0x3            
    3171     0C62          120A                    BCF PCLATH, 0x4            
    3172     0C63          1D03                    BTFSS STATUS, 0x2          
    3173     0C64          2C7D                    GOTO 0x47D                 
    3174     0C65          1283                    BCF STATUS, 0x5            
    3175     0C66          0801                    MOVF TMR0, W               
    3176     0C67          00C1                    MOVWF 0x41                 
    3177     0C68          13C1                    BCF 0x41, 0x7              
    3178     0C69          1341                    BCF 0x41, 0x6              
    3179     0C6A          12C1                    BCF 0x41, 0x5              
    3180     0C6B          1641                    BSF 0x41, 0x4              
    3181     0C6C          0103                    CLRW                       
    3182     0C6D          118A                    BCF PCLATH, 0x3            
    3183     0C6E          160A                    BSF PCLATH, 0x4            
    3184     0C6F          23B9                    CALL 0x3B9                 
    3185     0C70          158A                    BSF PCLATH, 0x3            
    3186     0C71          120A                    BCF PCLATH, 0x4            
    3187     0C72          118A                    BCF PCLATH, 0x3            
    3188     0C73          120A                    BCF PCLATH, 0x4            
    3189     0C74          22D4                    CALL 0x2D4                 
    3190     0C75          158A                    BSF PCLATH, 0x3            
    3191     0C76          120A                    BCF PCLATH, 0x4            
    3192     0C77          3C01                    SUBLW 0x1                  
    3193     0C78          1903                    BTFSC STATUS, 0x2          
    3194     0C79          2C86                    GOTO 0x486                 
    3195     0C7A          1683                    BSF STATUS, 0x5            
    3196     0C7B          1C2D                    BTFSS 0x2D, 0x0            
    3197     0C7C          2C55                    GOTO 0x455                 
    3198     0C7D          24A6                    CALL 0x4A6                 
    3199     0C7E          3001                    MOVLW 0x1                  
    3200     0C7F          118A                    BCF PCLATH, 0x3            
    3201     0C80          120A                    BCF PCLATH, 0x4            
    3202     0C81          2724                    CALL 0x724                 
    3203     0C82          158A                    BSF PCLATH, 0x3            
    3204     0C83          120A                    BCF PCLATH, 0x4            
    3205     0C84          1086                    BCF PORTB, 0x1             
    3206     0C85          0008                    RETURN                     
    3207     0C86          24A6                    CALL 0x4A6                 
    3208     0C87          1283                    BCF STATUS, 0x5            
    3209     0C88          1706                    BSF PORTB, 0x6             
    3210     0C89          1786                    BSF PORTB, 0x7             
    3211     0C8A          1686                    BSF PORTB, 0x5             
    3212     0C8B          30BC                    MOVLW 0xBC                 
    3213     0C8C          1683                    BSF STATUS, 0x5            
    3214     0C8D          00B0                    MOVWF 0x30                 
    3215     0C8E          1283                    BCF STATUS, 0x5            
    3216     0C8F          118A                    BCF PCLATH, 0x3            
    3217     0C90          120A                    BCF PCLATH, 0x4            
    3218     0C91          271E                    CALL 0x71E                 
    3219     0C92          158A                    BSF PCLATH, 0x3            
    3220     0C93          120A                    BCF PCLATH, 0x4            
    3221     0C94          1683                    BSF STATUS, 0x5            
    3222     0C95          0008                    RETURN                     
    3223     0C96          26A3                    CALL 0x6A3                 
    3224     0C97          1683                    BSF STATUS, 0x5            
    3225     0C98          14AD                    BSF 0x2D, 0x1              
    3226     0C99          102D                    BCF 0x2D, 0x0              
    3227     0C9A          3008                    MOVLW 0x8                  
    3228     0C9B          00AC                    MOVWF 0x2C                 
    3229     0C9C          1283                    BCF STATUS, 0x5            
    3230     0C9D          3003                    MOVLW 0x3                  
    3231     0C9E          118A                    BCF PCLATH, 0x3            
    3232     0C9F          120A                    BCF PCLATH, 0x4            
    3233     0CA0          2724                    CALL 0x724                 
    3234     0CA1          158A                    BSF PCLATH, 0x3            
    3235     0CA2          120A                    BCF PCLATH, 0x4            
    3236     0CA3          2645                    CALL 0x645                 
    3237     0CA4          1512                    BSF T2CON, 0x2             
    3238     0CA5          0008                    RETURN                     
    3239     0CA6          1683                    BSF STATUS, 0x5            
    3240     0CA7          10AD                    BCF 0x2D, 0x1              
    3241     0CA8          142D                    BSF 0x2D, 0x0              
    3242     0CA9          01A7                    CLRF 0x27                  
    3243     0CAA          1283                    BCF STATUS, 0x5            
    3244     0CAB          1112                    BCF T2CON, 0x2             
    3245     0CAC          0191                    CLRF TMR2                  
    3246     0CAD          118A                    BCF PCLATH, 0x3            
    3247     0CAE          160A                    BSF PCLATH, 0x4            
    3248     0CAF          2668                    CALL 0x668                 
    3249     0CB0          158A                    BSF PCLATH, 0x3            
    3250     0CB1          120A                    BCF PCLATH, 0x4            
    3251     0CB2          26A3                    CALL 0x6A3                 
    3252     0CB3          1283                    BCF STATUS, 0x5            
    3253     0CB4          268E                    CALL 0x68E                 
    3254     0CB5          1683                    BSF STATUS, 0x5            
    3255     0CB6          0064                    CLRWDT                     
    3256     0CB7          19A7                    BTFSC 0x27, 0x3            
    3257     0CB8          2CB6                    GOTO 0x4B6                 
    3258     0CB9          1283                    BCF STATUS, 0x5            
    3259     0CBA          0008                    RETURN                     
    3260     0CBB          1683                    BSF STATUS, 0x5            
    3261     0CBC          1EB7                    BTFSS 0x37, 0x5            
    3262     0CBD          2CCE                    GOTO 0x4CE                 
    3263     0CBE          1283                    BCF STATUS, 0x5            
    3264     0CBF          0866                    MOVF 0x66, W               
    3265     0CC0          00FB                    MOVWF 0x7B                 
    3266     0CC1          0865                    MOVF 0x65, W               
    3267     0CC2          00FA                    MOVWF 0x7A                 
    3268     0CC3          0864                    MOVF 0x64, W               
    3269     0CC4          00F9                    MOVWF 0x79                 
    3270     0CC5          0863                    MOVF 0x63, W               
    3271     0CC6          00F8                    MOVWF 0x78                 
    3272     0CC7          0862                    MOVF 0x62, W               
    3273     0CC8          00F7                    MOVWF 0x77                 
    3274     0CC9          0861                    MOVF 0x61, W               
    3275     0CCA          00F6                    MOVWF 0x76                 
    3276     0CCB          0860                    MOVF 0x60, W               
    3277     0CCC          00F5                    MOVWF 0x75                 
    3278     0CCD          2CD9                    GOTO 0x4D9                 
    3279     0CCE          1283                    BCF STATUS, 0x5            
    3280     0CCF          0864                    MOVF 0x64, W               
    3281     0CD0          00FA                    MOVWF 0x7A                 
    3282     0CD1          0863                    MOVF 0x63, W               
    3283     0CD2          00F9                    MOVWF 0x79                 
    3284     0CD3          0862                    MOVF 0x62, W               
    3285     0CD4          00F8                    MOVWF 0x78                 
    3286     0CD5          0861                    MOVF 0x61, W               
    3287     0CD6          00F7                    MOVWF 0x77                 
    3288     0CD7          0860                    MOVF 0x60, W               
    3289     0CD8          00F6                    MOVWF 0x76                 
    3290     0CD9          1683                    BSF STATUS, 0x5            
    3291     0CDA          1C5E                    BTFSS 0x5E, 0x0            
    3292     0CDB          2CE8                    GOTO 0x4E8                 
    3293     0CDC          085A                    MOVF 0x5A, W               
    3294     0CDD          00F9                    MOVWF 0x79                 
    3295     0CDE          0DF9                    RLF 0x79, F                
    3296     0CDF          0DF9                    RLF 0x79, F                
    3297     0CE0          0DF9                    RLF 0x79, F                
    3298     0CE1          0DF9                    RLF 0x79, F                
    3299     0CE2          30F0                    MOVLW 0xF0                 
    3300     0CE3          05F9                    ANDWF 0x79, F              
    3301     0CE4          1EB7                    BTFSS 0x37, 0x5            
    3302     0CE5          2CE8                    GOTO 0x4E8                 
    3303     0CE6          0879                    MOVF 0x79, W               
    3304     0CE7          00F8                    MOVWF 0x78                 
    3305     0CE8          1683                    BSF STATUS, 0x5            
    3306     0CE9          0852                    MOVF 0x52, W               
    3307     0CEA          1903                    BTFSC STATUS, 0x2          
    3308     0CEB          2CF7                    GOTO 0x4F7                 
    3309     0CEC          1C5E                    BTFSS 0x5E, 0x0            
    3310     0CED          2CF1                    GOTO 0x4F1                 
    3311     0CEE          3028                    MOVLW 0x28                 
    3312     0CEF          1AB7                    BTFSC 0x37, 0x5            
    3313     0CF0          3030                    MOVLW 0x30                 
    3314     0CF1          00D4                    MOVWF 0x54                 
    3315     0CF2          1283                    BCF STATUS, 0x5            
    3316     0CF3          2708                    CALL 0x708                 
    3317     0CF4          1683                    BSF STATUS, 0x5            
    3318     0CF5          0BD4                    DECFSZ 0x54, F             
    3319     0CF6          2CF2                    GOTO 0x4F2                 
    3320     0CF7          256A                    CALL 0x56A                 
    3321     0CF8          1283                    BCF STATUS, 0x5            
    3322     0CF9          26FB                    CALL 0x6FB                 
    3323     0CFA          2710                    CALL 0x710                 
    3324     0CFB          3082                    MOVLW 0x82                 
    3325     0CFC          1683                    BSF STATUS, 0x5            
    3326     0CFD          18D3                    BTFSC 0x53, 0x1            
    3327     0CFE          3084                    MOVLW 0x84                 
    3328     0CFF          185E                    BTFSC 0x5E, 0x0            
    3329     0D00          3081                    MOVLW 0x81                 
    3330     0D01          1283                    BCF STATUS, 0x5            
    3331     0D02          2517                    CALL 0x517                 
    3332     0D03          258D                    CALL 0x58D                 
    3333     0D04          3005                    MOVLW 0x5                  
    3334     0D05          1683                    BSF STATUS, 0x5            
    3335     0D06          18D3                    BTFSC 0x53, 0x1            
    3336     0D07          3E04                    ADDLW 0x4                  
    3337     0D08          185E                    BTFSC 0x5E, 0x0            
    3338     0D09          3002                    MOVLW 0x2                  
    3339     0D0A          1283                    BCF STATUS, 0x5            
    3340     0D0B          2526                    CALL 0x526                 
    3341     0D0C          3033                    MOVLW 0x33                 
    3342     0D0D          1683                    BSF STATUS, 0x5            
    3343     0D0E          18D3                    BTFSC 0x53, 0x1            
    3344     0D0F          3053                    MOVLW 0x53                 
    3345     0D10          185E                    BTFSC 0x5E, 0x0            
    3346     0D11          301B                    MOVLW 0x1B                 
    3347     0D12          1283                    BCF STATUS, 0x5            
    3348     0D13          00B3                    MOVWF 0x33                 
    3349     0D14          118A                    BCF PCLATH, 0x3            
    3350     0D15          120A                    BCF PCLATH, 0x4            
    3351     0D16          2CB2                    GOTO 0x4B2                 
    3352     0D17          00FF                    MOVWF 0x7F                 
    3353     0D18          118A                    BCF PCLATH, 0x3            
    3354     0D19          120A                    BCF PCLATH, 0x4            
    3355     0D1A          24AC                    CALL 0x4AC                 
    3356     0D1B          158A                    BSF PCLATH, 0x3            
    3357     0D1C          120A                    BCF PCLATH, 0x4            
    3358     0D1D          00A8                    MOVWF 0x28                 
    3359     0D1E          1003                    BCF STATUS, 0x0            
    3360     0D1F          0DA8                    RLF 0x28, F                
    3361     0D20          1003                    BCF STATUS, 0x0            
    3362     0D21          0DA8                    RLF 0x28, F                
    3363     0D22          1003                    BCF STATUS, 0x0            
    3364     0D23          0D28                    RLF 0x28, W                
    3365     0D24          04FF                    IORWF 0x7F, F              
    3366     0D25          0008                    RETURN                     
    3367     0D26          00B1                    MOVWF 0x31                 
    3368     0D27          307F                    MOVLW 0x7F                 
    3369     0D28          0084                    MOVWF FSR                  
    3370     0D29          0103                    CLRW                       
    3371     0D2A          0700                    ADDWF INDF, W              
    3372     0D2B          0384                    DECF FSR, F                
    3373     0D2C          0BB1                    DECFSZ 0x31, F             
    3374     0D2D          2D2A                    GOTO 0x52A                 
    3375     0D2E          0080                    MOVWF INDF                 
    3376     0D2F          0C00                    RRF INDF, W                
    3377     0D30          30FF                    MOVLW 0xFF                 
    3378     0D31          0680                    XORWF INDF, F              
    3379     0D32          0384                    DECF FSR, F                
    3380     0D33          0180                    CLRF INDF                  
    3381     0D34          0C80                    RRF INDF, F                
    3382     0D35          0008                    RETURN                     
    3383     0D36          3083                    MOVLW 0x83                 
    3384     0D37          2517                    CALL 0x517                 
    3385     0D38          1683                    BSF STATUS, 0x5            
    3386     0D39          300A                    MOVLW 0xA                  
    3387     0D3A          1AB7                    BTFSC 0x37, 0x5            
    3388     0D3B          3A10                    XORLW 0x10                 
    3389     0D3C          1283                    BCF STATUS, 0x5            
    3390     0D3D          00FE                    MOVWF 0x7E                 
    3391     0D3E          1683                    BSF STATUS, 0x5            
    3392     0D3F          1003                    BCF STATUS, 0x0            
    3393     0D40          1EDF                    BTFSS 0x5F, 0x5            
    3394     0D41          1403                    BSF STATUS, 0x0            
    3395     0D42          1283                    BCF STATUS, 0x5            
    3396     0D43          0DFE                    RLF 0x7E, F                
    3397     0D44          3041                    MOVLW 0x41                 
    3398     0D45          00FD                    MOVWF 0x7D                 
    3399     0D46          3004                    MOVLW 0x4                  
    3400     0D47          00FC                    MOVWF 0x7C                 
    3401     0D48          3004                    MOVLW 0x4                  
    3402     0D49          2526                    CALL 0x526                 
    3403     0D4A          302B                    MOVLW 0x2B                 
    3404     0D4B          00B3                    MOVWF 0x33                 
    3405     0D4C          1403                    BSF STATUS, 0x0            
    3406     0D4D          118A                    BCF PCLATH, 0x3            
    3407     0D4E          120A                    BCF PCLATH, 0x4            
    3408     0D4F          2C33                    GOTO 0x433                 
    3409     0D50          3083                    MOVLW 0x83                 
    3410     0D51          2517                    CALL 0x517                 
    3411     0D52          1683                    BSF STATUS, 0x5            
    3412     0D53          300A                    MOVLW 0xA                  
    3413     0D54          1AB7                    BTFSC 0x37, 0x5            
    3414     0D55          3A10                    XORLW 0x10                 
    3415     0D56          1283                    BCF STATUS, 0x5            
    3416     0D57          00FE                    MOVWF 0x7E                 
    3417     0D58          1683                    BSF STATUS, 0x5            
    3418     0D59          1003                    BCF STATUS, 0x0            
    3419     0D5A          1EDF                    BTFSS 0x5F, 0x5            
    3420     0D5B          1403                    BSF STATUS, 0x0            
    3421     0D5C          1283                    BCF STATUS, 0x5            
    3422     0D5D          0DFE                    RLF 0x7E, F                
    3423     0D5E          3041                    MOVLW 0x41                 
    3424     0D5F          00FD                    MOVWF 0x7D                 
    3425     0D60          3004                    MOVLW 0x4                  
    3426     0D61          00FC                    MOVWF 0x7C                 
    3427     0D62          3004                    MOVLW 0x4                  
    3428     0D63          2526                    CALL 0x526                 
    3429     0D64          302B                    MOVLW 0x2B                 
    3430     0D65          00B3                    MOVWF 0x33                 
    3431     0D66          1403                    BSF STATUS, 0x0            
    3432     0D67          118A                    BCF PCLATH, 0x3            
    3433     0D68          120A                    BCF PCLATH, 0x4            
    3434     0D69          2CC2                    GOTO 0x4C2                 
    3435     0D6A          1683                    BSF STATUS, 0x5            
    3436     0D6B          1C5E                    BTFSS 0x5E, 0x0            
    3437     0D6C          2D6F                    GOTO 0x56F                 
    3438     0D6D          1283                    BCF STATUS, 0x5            
    3439     0D6E          0008                    RETURN                     
    3440     0D6F          08D1                    MOVF 0x51, F               
    3441     0D70          1D03                    BTFSS STATUS, 0x2          
    3442     0D71          2D74                    GOTO 0x574                 
    3443     0D72          1283                    BCF STATUS, 0x5            
    3444     0D73          0008                    RETURN                     
    3445     0D74          3077                    MOVLW 0x77                 
    3446     0D75          0084                    MOVWF FSR                  
    3447     0D76          18D3                    BTFSC 0x53, 0x1            
    3448     0D77          2D7A                    GOTO 0x57A                 
    3449     0D78          3004                    MOVLW 0x4                  
    3450     0D79          0784                    ADDWF FSR, F               
    3451     0D7A          1003                    BCF STATUS, 0x0            
    3452     0D7B          0C4F                    RRF 0x4F, W                
    3453     0D7C          0784                    ADDWF FSR, F               
    3454     0D7D          1003                    BCF STATUS, 0x0            
    3455     0D7E          0C4F                    RRF 0x4F, W                
    3456     0D7F          1C03                    BTFSS STATUS, 0x0          
    3457     0D80          2D84                    GOTO 0x584                 
    3458     0D81          30F0                    MOVLW 0xF0                 
    3459     0D82          0580                    ANDWF INDF, F              
    3460     0D83          0A84                    INCF FSR, F                
    3461     0D84          307F                    MOVLW 0x7F                 
    3462     0D85          0204                    SUBWF FSR, W               
    3463     0D86          1803                    BTFSC STATUS, 0x0          
    3464     0D87          2D8B                    GOTO 0x58B                 
    3465     0D88          0180                    CLRF INDF                  
    3466     0D89          0A84                    INCF FSR, F                
    3467     0D8A          2D84                    GOTO 0x584                 
    3468     0D8B          1283                    BCF STATUS, 0x5            
    3469     0D8C          0008                    RETURN                     
    3470     0D8D          1683                    BSF STATUS, 0x5            
    3471     0D8E          185E                    BTFSC 0x5E, 0x0            
    3472     0D8F          0008                    RETURN                     
    3473     0D90          1CD3                    BTFSS 0x53, 0x1            
    3474     0D91          0008                    RETURN                     
    3475     0D92          3008                    MOVLW 0x8                  
    3476     0D93          00D5                    MOVWF 0x55                 
    3477     0D94          307E                    MOVLW 0x7E                 
    3478     0D95          0084                    MOVWF FSR                  
    3479     0D96          300F                    MOVLW 0xF                  
    3480     0D97          0500                    ANDWF INDF, W              
    3481     0D98          00D4                    MOVWF 0x54                 
    3482     0D99          1D03                    BTFSS STATUS, 0x2          
    3483     0D9A          2D9E                    GOTO 0x59E                 
    3484     0D9B          300C                    MOVLW 0xC                  
    3485     0D9C          0480                    IORWF INDF, F              
    3486     0D9D          2DA6                    GOTO 0x5A6                 
    3487     0D9E          300A                    MOVLW 0xA                  
    3488     0D9F          0254                    SUBWF 0x54, W              
    3489     0DA0          1C03                    BTFSS STATUS, 0x0          
    3490     0DA1          2DA6                    GOTO 0x5A6                 
    3491     0DA2          30F0                    MOVLW 0xF0                 
    3492     0DA3          0580                    ANDWF INDF, F              
    3493     0DA4          3009                    MOVLW 0x9                  
    3494     0DA5          0480                    IORWF INDF, F              
    3495     0DA6          30F0                    MOVLW 0xF0                 
    3496     0DA7          0500                    ANDWF INDF, W              
    3497     0DA8          00D4                    MOVWF 0x54                 
    3498     0DA9          1D03                    BTFSS STATUS, 0x2          
    3499     0DAA          2DAE                    GOTO 0x5AE                 
    3500     0DAB          30C0                    MOVLW 0xC0                 
    3501     0DAC          0480                    IORWF INDF, F              
    3502     0DAD          2DB7                    GOTO 0x5B7                 
    3503     0DAE          0ED4                    SWAPF 0x54, F              
    3504     0DAF          300A                    MOVLW 0xA                  
    3505     0DB0          0254                    SUBWF 0x54, W              
    3506     0DB1          1C03                    BTFSS STATUS, 0x0          
    3507     0DB2          2DB7                    GOTO 0x5B7                 
    3508     0DB3          300F                    MOVLW 0xF                  
    3509     0DB4          0580                    ANDWF INDF, F              
    3510     0DB5          3090                    MOVLW 0x90                 
    3511     0DB6          0480                    IORWF INDF, F              
    3512     0DB7          0384                    DECF FSR, F                
    3513     0DB8          0BD5                    DECFSZ 0x55, F             
    3514     0DB9          2D96                    GOTO 0x596                 
    3515     0DBA          1283                    BCF STATUS, 0x5            
    3516     0DBB          0008                    RETURN                     
    3517     0DBC          300D                    MOVLW 0xD                  
    3518     0DBD          008A                    MOVWF PCLATH               
    3519     0DBE          3008                    MOVLW 0x8                  
    3520     0DBF          25F3                    CALL 0x5F3                 
    3521     0DC0          0870                    MOVF 0x70, W               
    3522     0DC1          3980                    ANDLW 0x80                 
    3523     0DC2          1903                    BTFSC STATUS, 0x2          
    3524     0DC3          2DED                    GOTO 0x5ED                 
    3525     0DC4          0870                    MOVF 0x70, W               
    3526     0DC5          00A9                    MOVWF 0x29                 
    3527     0DC6          3907                    ANDLW 0x7                  
    3528     0DC7          0782                    ADDWF PCL, F               
    3529     0DC8          3A01                    XORLW 0x1                  
    3530     0DC9          3A1B                    XORLW 0x1B                 
    3531     0DCA          3A01                    XORLW 0x1                  
    3532     0DCB          3A17                    XORLW 0x17                 
    3533     0DCC          3A09                    XORLW 0x9                  
    3534     0DCD          3A1B                    XORLW 0x1B                 
    3535     0DCE          3A19                    XORLW 0x19                 
    3536     0DCF          3A17                    XORLW 0x17                 
    3537     0DD0          00B0                    MOVWF 0x30                 
    3538     0DD1          00B1                    MOVWF 0x31                 
    3539     0DD2          3C18                    SUBLW 0x18                 
    3540     0DD3          00A8                    MOVWF 0x28                 
    3541     0DD4          0830                    MOVF 0x30, W               
    3542     0DD5          25F3                    CALL 0x5F3                 
    3543     0DD6          0828                    MOVF 0x28, W               
    3544     0DD7          2601                    CALL 0x601                 
    3545     0DD8          118A                    BCF PCLATH, 0x3            
    3546     0DD9          120A                    BCF PCLATH, 0x4            
    3547     0DDA          25C8                    CALL 0x5C8                 
    3548     0DDB          158A                    BSF PCLATH, 0x3            
    3549     0DDC          120A                    BCF PCLATH, 0x4            
    3550     0DDD          0829                    MOVF 0x29, W               
    3551     0DDE          00F7                    MOVWF 0x77                 
    3552     0DDF          1003                    BCF STATUS, 0x0            
    3553     0DE0          0CB1                    RRF 0x31, F                
    3554     0DE1          1003                    BCF STATUS, 0x0            
    3555     0DE2          0CB1                    RRF 0x31, F                
    3556     0DE3          1003                    BCF STATUS, 0x0            
    3557     0DE4          0CB1                    RRF 0x31, F                
    3558     0DE5          0831                    MOVF 0x31, W               
    3559     0DE6          118A                    BCF PCLATH, 0x3            
    3560     0DE7          120A                    BCF PCLATH, 0x4            
    3561     0DE8          23F2                    CALL 0x3F2                 
    3562     0DE9          158A                    BSF PCLATH, 0x3            
    3563     0DEA          120A                    BCF PCLATH, 0x4            
    3564     0DEB          1903                    BTFSC STATUS, 0x2          
    3565     0DEC          2DF0                    GOTO 0x5F0                 
    3566     0DED          118A                    BCF PCLATH, 0x3            
    3567     0DEE          120A                    BCF PCLATH, 0x4            
    3568     0DEF          2AD2                    GOTO 0x2D2                 
    3569     0DF0          118A                    BCF PCLATH, 0x3            
    3570     0DF1          120A                    BCF PCLATH, 0x4            
    3571     0DF2          2B06                    GOTO 0x306                 
    3572     0DF3          00B0                    MOVWF 0x30                 
    3573     0DF4          118A                    BCF PCLATH, 0x3            
    3574     0DF5          120A                    BCF PCLATH, 0x4            
    3575     0DF6          2307                    CALL 0x307                 
    3576     0DF7          158A                    BSF PCLATH, 0x3            
    3577     0DF8          120A                    BCF PCLATH, 0x4            
    3578     0DF9          118A                    BCF PCLATH, 0x3            
    3579     0DFA          160A                    BSF PCLATH, 0x4            
    3580     0DFB          2334                    CALL 0x334                 
    3581     0DFC          158A                    BSF PCLATH, 0x3            
    3582     0DFD          120A                    BCF PCLATH, 0x4            
    3583     0DFE          0BB0                    DECFSZ 0x30, F             
    3584     0DFF          2DF4                    GOTO 0x5F4                 
    3585     0E00          0008                    RETURN                     
    3586     0E01          00A8                    MOVWF 0x28                 
    3587     0E02          08A8                    MOVF 0x28, F               
    3588     0E03          1903                    BTFSC STATUS, 0x2          
    3589     0E04          2E0C                    GOTO 0x60C                 
    3590     0E05          118A                    BCF PCLATH, 0x3            
    3591     0E06          160A                    BSF PCLATH, 0x4            
    3592     0E07          2334                    CALL 0x334                 
    3593     0E08          158A                    BSF PCLATH, 0x3            
    3594     0E09          120A                    BCF PCLATH, 0x4            
    3595     0E0A          0BA8                    DECFSZ 0x28, F             
    3596     0E0B          2E05                    GOTO 0x605                 
    3597     0E0C          0008                    RETURN                     
    3598     0E0D          118A                    BCF PCLATH, 0x3            
    3599     0E0E          160A                    BSF PCLATH, 0x4            
    3600     0E0F          2380                    CALL 0x380                 
    3601     0E10          158A                    BSF PCLATH, 0x3            
    3602     0E11          120A                    BCF PCLATH, 0x4            
    3603     0E12          1D03                    BTFSS STATUS, 0x2          
    3604     0E13          0008                    RETURN                     
    3605     0E14          084F                    MOVF 0x4F, W               
    3606     0E15          01CF                    CLRF 0x4F                  
    3607     0E16          0686                    XORWF PORTB, F             
    3608     0E17          0008                    RETURN                     
    3609     0E18          30E0                    MOVLW 0xE0                 
    3610     0E19          0486                    IORWF PORTB, F             
    3611     0E1A          2E22                    GOTO 0x622                 
    3612     0E1B          118A                    BCF PCLATH, 0x3            
    3613     0E1C          160A                    BSF PCLATH, 0x4            
    3614     0E1D          238A                    CALL 0x38A                 
    3615     0E1E          158A                    BSF PCLATH, 0x3            
    3616     0E1F          120A                    BCF PCLATH, 0x4            
    3617     0E20          1D03                    BTFSS STATUS, 0x2          
    3618     0E21          0008                    RETURN                     
    3619     0E22          30DE                    MOVLW 0xDE                 
    3620     0E23          00C1                    MOVWF 0x41                 
    3621     0E24          3000                    MOVLW 0x0                  
    3622     0E25          118A                    BCF PCLATH, 0x3            
    3623     0E26          160A                    BSF PCLATH, 0x4            
    3624     0E27          23C5                    CALL 0x3C5                 
    3625     0E28          158A                    BSF PCLATH, 0x3            
    3626     0E29          120A                    BCF PCLATH, 0x4            
    3627     0E2A          0824                    MOVF 0x24, W               
    3628     0E2B          39E0                    ANDLW 0xE0                 
    3629     0E2C          0686                    XORWF PORTB, F             
    3630     0E2D          1B24                    BTFSC 0x24, 0x6            
    3631     0E2E          0008                    RETURN                     
    3632     0E2F          1683                    BSF STATUS, 0x5            
    3633     0E30          10E4                    BCF 0x64, 0x1              
    3634     0E31          1283                    BCF STATUS, 0x5            
    3635     0E32          0008                    RETURN                     
    3636     0E33          1CA3                    BTFSS 0x23, 0x1            
    3637     0E34          0008                    RETURN                     
    3638     0E35          118A                    BCF PCLATH, 0x3            
    3639     0E36          160A                    BSF PCLATH, 0x4            
    3640     0E37          2394                    CALL 0x394                 
    3641     0E38          158A                    BSF PCLATH, 0x3            
    3642     0E39          120A                    BCF PCLATH, 0x4            
    3643     0E3A          1D03                    BTFSS STATUS, 0x2          
    3644     0E3B          0008                    RETURN                     
    3645     0E3C          10A3                    BCF 0x23, 0x1              
    3646     0E3D          1683                    BSF STATUS, 0x5            
    3647     0E3E          1C64                    BTFSS 0x64, 0x0            
    3648     0E3F          2E42                    GOTO 0x642                 
    3649     0E40          1283                    BCF STATUS, 0x5            
    3650     0E41          0008                    RETURN                     
    3651     0E42          1283                    BCF STATUS, 0x5            
    3652     0E43          1706                    BSF PORTB, 0x6             
    3653     0E44          0008                    RETURN                     
    3654     0E45          14A2                    BSF 0x22, 0x1              
    3655     0E46          1422                    BSF 0x22, 0x0              
    3656     0E47          1522                    BSF 0x22, 0x2              
    3657     0E48          0008                    RETURN                     
    3658     0E49          1683                    BSF STATUS, 0x5            
    3659     0E4A          00A4                    MOVWF 0x24                 
    3660     0E4B          00A3                    MOVWF 0x23                 
    3661     0E4C          1527                    BSF 0x27, 0x2              
    3662     0E4D          0E23                    SWAPF 0x23, W              
    3663     0E4E          39F0                    ANDLW 0xF0                 
    3664     0E4F          1283                    BCF STATUS, 0x5            
    3665     0E50          0095                    MOVWF CCPR1                
    3666     0E51          1683                    BSF STATUS, 0x5            
    3667     0E52          0E23                    SWAPF 0x23, W              
    3668     0E53          390F                    ANDLW 0xF                  
    3669     0E54          1283                    BCF STATUS, 0x5            
    3670     0E55          0096                    MOVWF CCPR1H               
    3671     0E56          018F                    CLRF TMR1H                 
    3672     0E57          018E                    CLRF TMR1                  
    3673     0E58          1410                    BSF T1CON, 0x0             
    3674     0E59          0008                    RETURN                     
    3675     0E5A          1683                    BSF STATUS, 0x5            
    3676     0E5B          1427                    BSF 0x27, 0x0              
    3677     0E5C          3010                    MOVLW 0x10                 
    3678     0E5D          00A6                    MOVWF 0x26                 
    3679     0E5E          3018                    MOVLW 0x18                 
    3680     0E5F          1283                    BCF STATUS, 0x5            
    3681     0E60          2E62                    GOTO 0x662                 
    3682     0E61          3006                    MOVLW 0x6                  
    3683     0E62          2649                    CALL 0x649                 
    3684     0E63          1606                    BSF PORTB, 0x4             
    3685     0E64          0008                    RETURN                     
    3686     0E65          1683                    BSF STATUS, 0x5            
    3687     0E66          1927                    BTFSC 0x27, 0x2            
    3688     0E67          2E75                    GOTO 0x675                 
    3689     0E68          1283                    BCF STATUS, 0x5            
    3690     0E69          3002                    MOVLW 0x2                  
    3691     0E6A          1DA4                    BTFSS 0x24, 0x3            
    3692     0E6B          3003                    MOVLW 0x3                  
    3693     0E6C          1683                    BSF STATUS, 0x5            
    3694     0E6D          00A6                    MOVWF 0x26                 
    3695     0E6E          1283                    BCF STATUS, 0x5            
    3696     0E6F          2661                    CALL 0x661                 
    3697     0E70          19A2                    BTFSC 0x22, 0x3            
    3698     0E71          2E75                    GOTO 0x675                 
    3699     0E72          0191                    CLRF TMR2                  
    3700     0E73          1512                    BSF T2CON, 0x2             
    3701     0E74          0008                    RETURN                     
    3702     0E75          1283                    BCF STATUS, 0x5            
    3703     0E76          0008                    RETURN                     
    3704     0E77          1683                    BSF STATUS, 0x5            
    3705     0E78          00A4                    MOVWF 0x24                 
    3706     0E79          3020                    MOVLW 0x20                 
    3707     0E7A          2E86                    GOTO 0x686                 
    3708     0E7B          1683                    BSF STATUS, 0x5            
    3709     0E7C          00A4                    MOVWF 0x24                 
    3710     0E7D          3018                    MOVLW 0x18                 
    3711     0E7E          2E86                    GOTO 0x686                 
    3712     0E7F          1683                    BSF STATUS, 0x5            
    3713     0E80          00A4                    MOVWF 0x24                 
    3714     0E81          3007                    MOVLW 0x7                  
    3715     0E82          2E86                    GOTO 0x686                 
    3716     0E83          1683                    BSF STATUS, 0x5            
    3717     0E84          00A4                    MOVWF 0x24                 
    3718     0E85          3003                    MOVLW 0x3                  
    3719     0E86          00A6                    MOVWF 0x26                 
    3720     0E87          0824                    MOVF 0x24, W               
    3721     0E88          2649                    CALL 0x649                 
    3722     0E89          1283                    BCF STATUS, 0x5            
    3723     0E8A          1606                    BSF PORTB, 0x4             
    3724     0E8B          0191                    CLRF TMR2                  
    3725     0E8C          1512                    BSF T2CON, 0x2             
    3726     0E8D          0008                    RETURN                     
    3727     0E8E          26A3                    CALL 0x6A3                 
    3728     0E8F          1683                    BSF STATUS, 0x5            
    3729     0E90          1564                    BSF 0x64, 0x2              
    3730     0E91          15A7                    BSF 0x27, 0x3              
    3731     0E92          01AA                    CLRF 0x2A                  
    3732     0E93          3031                    MOVLW 0x31                 
    3733     0E94          2683                    CALL 0x683                 
    3734     0E95          0008                    RETURN                     
    3735     0E96          26A3                    CALL 0x6A3                 
    3736     0E97          1683                    BSF STATUS, 0x5            
    3737     0E98          15A7                    BSF 0x27, 0x3              
    3738     0E99          1627                    BSF 0x27, 0x4              
    3739     0E9A          01AA                    CLRF 0x2A                  
    3740     0E9B          3012                    MOVLW 0x12                 
    3741     0E9C          2683                    CALL 0x683                 
    3742     0E9D          1683                    BSF STATUS, 0x5            
    3743     0E9E          0064                    CLRWDT                     
    3744     0E9F          19A7                    BTFSC 0x27, 0x3            
    3745     0EA0          2EDC                    GOTO 0x6DC                 
    3746     0EA1          1283                    BCF STATUS, 0x5            
    3747     0EA2          0008                    RETURN                     
    3748     0EA3          1283                    BCF STATUS, 0x5            
    3749     0EA4          1206                    BCF PORTB, 0x4             
    3750     0EA5          11A2                    BCF 0x22, 0x3              
    3751     0EA6          1010                    BCF T1CON, 0x0             
    3752     0EA7          110C                    BCF PIR1, 0x2              
    3753     0EA8          1683                    BSF STATUS, 0x5            
    3754     0EA9          1127                    BCF 0x27, 0x2              
    3755     0EAA          1283                    BCF STATUS, 0x5            
    3756     0EAB          0008                    RETURN                     
    3757     0EAC          300E                    MOVLW 0xE                  
    3758     0EAD          008A                    MOVWF PCLATH               
    3759     0EAE          0E76                    SWAPF 0x76, W              
    3760     0EAF          390F                    ANDLW 0xF                  
    3761     0EB0          0782                    ADDWF PCL, F               
    3762     0EB1          3403                    RETLW 0x3                  
    3763     0EB2          3406                    RETLW 0x6                  
    3764     0EB3          3409                    RETLW 0x9                  
    3765     0EB4          340C                    RETLW 0xC                  
    3766     0EB5          340F                    RETLW 0xF                  
    3767     0EB6          3412                    RETLW 0x12                 
    3768     0EB7          3415                    RETLW 0x15                 
    3769     0EB8          3418                    RETLW 0x18                 
    3770     0EB9          3419                    RETLW 0x19                 
    3771     0EBA          341F                    RETLW 0x1F                 
    3772     0EBB          3422                    RETLW 0x22                 
    3773     0EBC          3425                    RETLW 0x25                 
    3774     0EBD          3428                    RETLW 0x28                 
    3775     0EBE          342B                    RETLW 0x2B                 
    3776     0EBF          342E                    RETLW 0x2E                 
    3777     0EC0          3431                    RETLW 0x31                 
    3778     0EC1          1283                    BCF STATUS, 0x5            
    3779     0EC2          30C0                    MOVLW 0xC0                 
    3780     0EC3          0526                    ANDWF 0x26, W              
    3781     0EC4          1D03                    BTFSS STATUS, 0x2          
    3782     0EC5          2EE0                    GOTO 0x6E0                 
    3783     0EC6          1683                    BSF STATUS, 0x5            
    3784     0EC7          18DE                    BTFSC 0x5E, 0x1            
    3785     0EC8          2EE0                    GOTO 0x6E0                 
    3786     0EC9          195E                    BTFSC 0x5E, 0x2            
    3787     0ECA          2EE0                    GOTO 0x6E0                 
    3788     0ECB          192D                    BTFSC 0x2D, 0x2            
    3789     0ECC          2EE0                    GOTO 0x6E0                 
    3790     0ECD          18D8                    BTFSC 0x58, 0x1            
    3791     0ECE          2EE0                    GOTO 0x6E0                 
    3792     0ECF          1958                    BTFSC 0x58, 0x2            
    3793     0ED0          2EE0                    GOTO 0x6E0                 
    3794     0ED1          1283                    BCF STATUS, 0x5            
    3795     0ED2          0840                    MOVF 0x40, W               
    3796     0ED3          3CBD                    SUBLW 0xBD                 
    3797     0ED4          1903                    BTFSC STATUS, 0x2          
    3798     0ED5          2EDA                    GOTO 0x6DA                 
    3799     0ED6          0840                    MOVF 0x40, W               
    3800     0ED7          3CBC                    SUBLW 0xBC                 
    3801     0ED8          1D03                    BTFSS STATUS, 0x2          
    3802     0ED9          2EE0                    GOTO 0x6E0                 
    3803     0EDA          268E                    CALL 0x68E                 
    3804     0EDB          1683                    BSF STATUS, 0x5            
    3805     0EDC          0064                    CLRWDT                     
    3806     0EDD          19A7                    BTFSC 0x27, 0x3            
    3807     0EDE          2EDC                    GOTO 0x6DC                 
    3808     0EDF          152D                    BSF 0x2D, 0x2              
    3809     0EE0          1283                    BCF STATUS, 0x5            
    3810     0EE1          0008                    RETURN                     
    3811     0EE2          1683                    BSF STATUS, 0x5            
    3812     0EE3          30B0                    MOVLW 0xB0                 
    3813     0EE4          0084                    MOVWF FSR                  
    3814     0EE5          3010                    MOVLW 0x10                 
    3815     0EE6          00D4                    MOVWF 0x54                 
    3816     0EE7          1304                    BCF FSR, 0x6               
    3817     0EE8          0800                    MOVF INDF, W               
    3818     0EE9          1704                    BSF FSR, 0x6               
    3819     0EEA          0080                    MOVWF INDF                 
    3820     0EEB          0A84                    INCF FSR, F                
    3821     0EEC          0BD4                    DECFSZ 0x54, F             
    3822     0EED          2EE7                    GOTO 0x6E7                 
    3823     0EEE          1283                    BCF STATUS, 0x5            
    3824     0EEF          0008                    RETURN                     
    3825     0EF0          3070                    MOVLW 0x70                 
    3826     0EF1          0084                    MOVWF FSR                  
    3827     0EF2          1684                    BSF FSR, 0x5               
    3828     0EF3          0800                    MOVF INDF, W               
    3829     0EF4          1284                    BCF FSR, 0x5               
    3830     0EF5          0080                    MOVWF INDF                 
    3831     0EF6          0E80                    SWAPF INDF, F              
    3832     0EF7          0A84                    INCF FSR, F                
    3833     0EF8          1D84                    BTFSS FSR, 0x3             
    3834     0EF9          2EF2                    GOTO 0x6F2                 
    3835     0EFA          0008                    RETURN                     
    3836     0EFB          3010                    MOVLW 0x10                 
    3837     0EFC          00A8                    MOVWF 0x28                 
    3838     0EFD          3070                    MOVLW 0x70                 
    3839     0EFE          0084                    MOVWF FSR                  
    3840     0EFF          1684                    BSF FSR, 0x5               
    3841     0F00          0800                    MOVF INDF, W               
    3842     0F01          1284                    BCF FSR, 0x5               
    3843     0F02          0080                    MOVWF INDF                 
    3844     0F03          0E80                    SWAPF INDF, F              
    3845     0F04          0A84                    INCF FSR, F                
    3846     0F05          0BA8                    DECFSZ 0x28, F             
    3847     0F06          2EFF                    GOTO 0x6FF                 
    3848     0F07          0008                    RETURN                     
    3849     0F08          3070                    MOVLW 0x70                 
    3850     0F09          0084                    MOVWF FSR                  
    3851     0F0A          0064                    CLRWDT                     
    3852     0F0B          0C80                    RRF INDF, F                
    3853     0F0C          0A84                    INCF FSR, F                
    3854     0F0D          1A04                    BTFSC FSR, 0x4             
    3855     0F0E          2F0B                    GOTO 0x70B                 
    3856     0F0F          0008                    RETURN                     
    3857     0F10          3050                    MOVLW 0x50                 
    3858     0F11          0084                    MOVWF FSR                  
    3859     0F12          3010                    MOVLW 0x10                 
    3860     0F13          00A8                    MOVWF 0x28                 
    3861     0F14          1284                    BCF FSR, 0x5               
    3862     0F15          0800                    MOVF INDF, W               
    3863     0F16          1684                    BSF FSR, 0x5               
    3864     0F17          0080                    MOVWF INDF                 
    3865     0F18          0A84                    INCF FSR, F                
    3866     0F19          0BA8                    DECFSZ 0x28, F             
    3867     0F1A          2F14                    GOTO 0x714                 
    3868     0F1B          0008                    RETURN                     
    3869     0F1C          3070                    MOVLW 0x70                 
    3870     0F1D          0084                    MOVWF FSR                  
    3871     0F1E          3004                    MOVLW 0x4                  
    3872     0F1F          00B6                    MOVWF 0x36                 
    3873     0F20          1104                    BCF FSR, 0x2               
    3874     0F21          0800                    MOVF INDF, W               
    3875     0F22          00A8                    MOVWF 0x28                 
    3876     0F23          1504                    BSF FSR, 0x2               
    3877     0F24          0800                    MOVF INDF, W               
    3878     0F25          1104                    BCF FSR, 0x2               
    3879     0F26          0080                    MOVWF INDF                 
    3880     0F27          0828                    MOVF 0x28, W               
    3881     0F28          1504                    BSF FSR, 0x2               
    3882     0F29          0080                    MOVWF INDF                 
    3883     0F2A          0A84                    INCF FSR, F                
    3884     0F2B          0BB6                    DECFSZ 0x36, F             
    3885     0F2C          2F20                    GOTO 0x720                 
    3886     0F2D          118A                    BCF PCLATH, 0x3            
    3887     0F2E          120A                    BCF PCLATH, 0x4            
    3888     0F2F          2DCB                    GOTO 0x5CB                 
    3889     0F30          3070                    MOVLW 0x70                 
    3890     0F31          0084                    MOVWF FSR                  
    3891     0F32          0832                    MOVF 0x32, W               
    3892     0F33          00B1                    MOVWF 0x31                 
    3893     0F34          0800                    MOVF INDF, W               
    3894     0F35          1D03                    BTFSS STATUS, 0x2          
    3895     0F36          0008                    RETURN                     
    3896     0F37          0A84                    INCF FSR, F                
    3897     0F38          0BB1                    DECFSZ 0x31, F             
    3898     0F39          2F34                    GOTO 0x734                 
    3899     0F3A          3800                    IORLW 0x0                  
    3900     0F3B          0008                    RETURN                     
    3901     0F3C          3050                    MOVLW 0x50                 
    3902     0F3D          0084                    MOVWF FSR                  
    3903     0F3E          1003                    BCF STATUS, 0x0            
    3904     0F3F          0C28                    RRF 0x28, W                
    3905     0F40          0784                    ADDWF FSR, F               
    3906     0F41          0800                    MOVF INDF, W               
    3907     0F42          1C28                    BTFSS 0x28, 0x0            
    3908     0F43          0E00                    SWAPF INDF, W              
    3909     0F44          390F                    ANDLW 0xF                  
    3910     0F45          00A9                    MOVWF 0x29                 
    3911     0F46          0AA8                    INCF 0x28, F               
    3912     0F47          0008                    RETURN                     
    3913     0F48          3070                    MOVLW 0x70                 
    3914     0F49          0084                    MOVWF FSR                  
    3915     0F4A          3007                    MOVLW 0x7                  
    3916     0F4B          00B6                    MOVWF 0x36                 
    3917     0F4C          0800                    MOVF INDF, W               
    3918     0F4D          1D03                    BTFSS STATUS, 0x2          
    3919     0F4E          0008                    RETURN                     
    3920     0F4F          0A84                    INCF FSR, F                
    3921     0F50          0BB6                    DECFSZ 0x36, F             
    3922     0F51          2F4C                    GOTO 0x74C                 
    3923     0F52          0800                    MOVF INDF, W               
    3924     0F53          39FC                    ANDLW 0xFC                 
    3925     0F54          3C0C                    SUBLW 0xC                  
    3926     0F55          1D03                    BTFSS STATUS, 0x2          
    3927     0F56          0008                    RETURN                     
    3928     0F57          1524                    BSF 0x24, 0x2              
    3929     0F58          18F7                    BTFSC 0x77, 0x1            
    3930     0F59          2F61                    GOTO 0x761                 
    3931     0F5A          1683                    BSF STATUS, 0x5            
    3932     0F5B          1C77                    BTFSS 0x77, 0x0            
    3933     0F5C          1558                    BSF 0x58, 0x2              
    3934     0F5D          1877                    BTFSC 0x77, 0x0            
    3935     0F5E          14D8                    BSF 0x58, 0x1              
    3936     0F5F          1283                    BCF STATUS, 0x5            
    3937     0F60          0008                    RETURN                     
    3938     0F61          1877                    BTFSC 0x77, 0x0            
    3939     0F62          0008                    RETURN                     
    3940     0F63          15A3                    BSF 0x23, 0x3              
    3941     0F64          0008                    RETURN                     
    3942     0F65          1283                    BCF STATUS, 0x5            
    3943     0F66          26E2                    CALL 0x6E2                 
    3944     0F67          118A                    BCF PCLATH, 0x3            
    3945     0F68          120A                    BCF PCLATH, 0x4            
    3946     0F69          26D8                    CALL 0x6D8                 
    3947     0F6A          158A                    BSF PCLATH, 0x3            
    3948     0F6B          120A                    BCF PCLATH, 0x4            
    3949     0F6C          118A                    BCF PCLATH, 0x3            
    3950     0F6D          120A                    BCF PCLATH, 0x4            
    3951     0F6E          26F0                    CALL 0x6F0                 
    3952     0F6F          158A                    BSF PCLATH, 0x3            
    3953     0F70          120A                    BCF PCLATH, 0x4            
    3954     0F71          3012                    MOVLW 0x12                 
    3955     0F72          06DB                    XORWF 0x5B, F              
    3956     0F73          3084                    MOVLW 0x84                 
    3957     0F74          06DA                    XORWF 0x5A, F              
    3958     0F75          3018                    MOVLW 0x18                 
    3959     0F76          00BD                    MOVWF 0x3D                 
    3960     0F77          2696                    CALL 0x696                 
    3961     0F78          273C                    CALL 0x73C                 
    3962     0F79          08A9                    MOVF 0x29, F               
    3963     0F7A          1903                    BTFSC STATUS, 0x2          
    3964     0F7B          2F80                    GOTO 0x780                 
    3965     0F7C          279A                    CALL 0x79A                 
    3966     0F7D          278F                    CALL 0x78F                 
    3967     0F7E          0BA9                    DECFSZ 0x29, F             
    3968     0F7F          2F7C                    GOTO 0x77C                 
    3969     0F80          1422                    BSF 0x22, 0x0              
    3970     0F81          2796                    CALL 0x796                 
    3971     0F82          2696                    CALL 0x696                 
    3972     0F83          1022                    BCF 0x22, 0x0              
    3973     0F84          2796                    CALL 0x796                 
    3974     0F85          0BBD                    DECFSZ 0x3D, F             
    3975     0F86          2F78                    GOTO 0x778                 
    3976     0F87          0064                    CLRWDT                     
    3977     0F88          2696                    CALL 0x696                 
    3978     0F89          2696                    CALL 0x696                 
    3979     0F8A          2696                    CALL 0x696                 
    3980     0F8B          2696                    CALL 0x696                 
    3981     0F8C          2696                    CALL 0x696                 
    3982     0F8D          2696                    CALL 0x696                 
    3983     0F8E          2F65                    GOTO 0x765                 
    3984     0F8F          14A2                    BSF 0x22, 0x1              
    3985     0F90          300A                    MOVLW 0xA                  
    3986     0F91          267F                    CALL 0x67F                 
    3987     0F92          279E                    CALL 0x79E                 
    3988     0F93          1786                    BSF PORTB, 0x7             
    3989     0F94          10A2                    BCF 0x22, 0x1              
    3990     0F95          0008                    RETURN                     
    3991     0F96          1283                    BCF STATUS, 0x5            
    3992     0F97          279A                    CALL 0x79A                 
    3993     0F98          279A                    CALL 0x79A                 
    3994     0F99          0008                    RETURN                     
    3995     0F9A          1283                    BCF STATUS, 0x5            
    3996     0F9B          279E                    CALL 0x79E                 
    3997     0F9C          279E                    CALL 0x79E                 
    3998     0F9D          0008                    RETURN                     
    3999     0F9E          1283                    BCF STATUS, 0x5            
    4000     0F9F          118A                    BCF PCLATH, 0x3            
    4001     0FA0          160A                    BSF PCLATH, 0x4            
    4002     0FA1          22F0                    CALL 0x2F0                 
    4003     0FA2          158A                    BSF PCLATH, 0x3            
    4004     0FA3          120A                    BCF PCLATH, 0x4            
    4005     0FA4          0008                    RETURN                     
    4006     0FA5          3FFF                    ADDLW 0xFF                 
    4007     0FA6          3FFF                    ADDLW 0xFF                 
    4008     0FA7          3FFF                    ADDLW 0xFF                 
    4009     0FA8          3FFF                    ADDLW 0xFF                 
    4010     0FA9          3FFF                    ADDLW 0xFF                 
    4011     0FAA          3FFF                    ADDLW 0xFF                 
    4012     0FAB          3FFF                    ADDLW 0xFF                 
    4013     0FAC          3FFF                    ADDLW 0xFF                 
    4014     0FAD          3FFF                    ADDLW 0xFF                 
    4015     0FAE          3FFF                    ADDLW 0xFF                 
    4016     0FAF          3FFF                    ADDLW 0xFF                 
    4017     0FB0          3FFF                    ADDLW 0xFF                 
    4018     0FB1          3FFF                    ADDLW 0xFF                 
    4019     0FB2          3FFF                    ADDLW 0xFF                 
    4020     0FB3          3FFF                    ADDLW 0xFF                 
    4021     0FB4          3FFF                    ADDLW 0xFF                 
    4022     0FB5          3FFF                    ADDLW 0xFF                 
    4023     0FB6          3FFF                    ADDLW 0xFF                 
    4024     0FB7          3FFF                    ADDLW 0xFF                 
    4025     0FB8          3FFF                    ADDLW 0xFF                 
    4026     0FB9          3FFF                    ADDLW 0xFF                 
    4027     0FBA          3FFF                    ADDLW 0xFF                 
    4028     0FBB          3FFF                    ADDLW 0xFF                 
    4029     0FBC          3FFF                    ADDLW 0xFF                 
    4030     0FBD          3FFF                    ADDLW 0xFF                 
    4031     0FBE          3FFF                    ADDLW 0xFF                 
    4032     0FBF          3FFF                    ADDLW 0xFF                 
    4033     0FC0          3FFF                    ADDLW 0xFF                 
    4034     0FC1          3FFF                    ADDLW 0xFF                 
    4035     0FC2          3FFF                    ADDLW 0xFF                 
    4036     0FC3          3FFF                    ADDLW 0xFF                 
    4037     0FC4          3FFF                    ADDLW 0xFF                 
    4038     0FC5          3FFF                    ADDLW 0xFF                 
    4039     0FC6          3FFF                    ADDLW 0xFF                 
    4040     0FC7          3FFF                    ADDLW 0xFF                 
    4041     0FC8          3FFF                    ADDLW 0xFF                 
    4042     0FC9          3FFF                    ADDLW 0xFF                 
    4043     0FCA          3FFF                    ADDLW 0xFF                 
    4044     0FCB          3FFF                    ADDLW 0xFF                 
    4045     0FCC          3FFF                    ADDLW 0xFF                 
    4046     0FCD          3FFF                    ADDLW 0xFF                 
    4047     0FCE          3FFF                    ADDLW 0xFF                 
    4048     0FCF          3FFF                    ADDLW 0xFF                 
    4049     0FD0          3FFF                    ADDLW 0xFF                 
    4050     0FD1          3FFF                    ADDLW 0xFF                 
    4051     0FD2          3FFF                    ADDLW 0xFF                 
    4052     0FD3          3FFF                    ADDLW 0xFF                 
    4053     0FD4          3FFF                    ADDLW 0xFF                 
    4054     0FD5          3FFF                    ADDLW 0xFF                 
    4055     0FD6          3FFF                    ADDLW 0xFF                 
    4056     0FD7          3FFF                    ADDLW 0xFF                 
    4057     0FD8          3FFF                    ADDLW 0xFF                 
    4058     0FD9          3FFF                    ADDLW 0xFF                 
    4059     0FDA          3FFF                    ADDLW 0xFF                 
    4060     0FDB          3FFF                    ADDLW 0xFF                 
    4061     0FDC          3FFF                    ADDLW 0xFF                 
    4062     0FDD          3FFF                    ADDLW 0xFF                 
    4063     0FDE          3FFF                    ADDLW 0xFF                 
    4064     0FDF          3FFF                    ADDLW 0xFF                 
    4065     0FE0          3FFF                    ADDLW 0xFF                 
    4066     0FE1          3FFF                    ADDLW 0xFF                 
    4067     0FE2          3FFF                    ADDLW 0xFF                 
    4068     0FE3          3FFF                    ADDLW 0xFF                 
    4069     0FE4          3FFF                    ADDLW 0xFF                 
    4070     0FE5          3FFF                    ADDLW 0xFF                 
    4071     0FE6          3FFF                    ADDLW 0xFF                 
    4072     0FE7          3FFF                    ADDLW 0xFF                 
    4073     0FE8          3FFF                    ADDLW 0xFF                 
    4074     0FE9          3FFF                    ADDLW 0xFF                 
    4075     0FEA          3FFF                    ADDLW 0xFF                 
    4076     0FEB          3FFF                    ADDLW 0xFF                 
    4077     0FEC          3FFF                    ADDLW 0xFF                 
    4078     0FED          3FFF                    ADDLW 0xFF                 
    4079     0FEE          3FFF                    ADDLW 0xFF                 
    4080     0FEF          3FFF                    ADDLW 0xFF                 
    4081     0FF0          3FFF                    ADDLW 0xFF                 
    4082     0FF1          3FFF                    ADDLW 0xFF                 
    4083     0FF2          3FFF                    ADDLW 0xFF                 
    4084     0FF3          3FFF                    ADDLW 0xFF                 
    4085     0FF4          3FFF                    ADDLW 0xFF                 
    4086     0FF5          3FFF                    ADDLW 0xFF                 
    4087     0FF6          3FFF                    ADDLW 0xFF                 
    4088     0FF7          3FFF                    ADDLW 0xFF                 
    4089     0FF8          3FFF                    ADDLW 0xFF                 
    4090     0FF9          3FFF                    ADDLW 0xFF                 
    4091     0FFA          3FFF                    ADDLW 0xFF                 
    4092     0FFB          3FFF                    ADDLW 0xFF                 
    4093     0FFC          3FFF                    ADDLW 0xFF                 
    4094     0FFD          3FFF                    ADDLW 0xFF                 
    4095     0FFE          3FFF                    ADDLW 0xFF                 
    4096     0FFF          3FFF                    ADDLW 0xFF                 
    4097     1000          118A                    BCF PCLATH, 0x3            
    4098     1001          160A                    BSF PCLATH, 0x4            
    4099     1002          2394                    CALL 0x394                 
    4100     1003          118A                    BCF PCLATH, 0x3            
    4101     1004          160A                    BSF PCLATH, 0x4            
    4102     1005          1D03                    BTFSS STATUS, 0x2          
    4103     1006          280D                    GOTO 0xD                   
    4104     1007          1683                    BSF STATUS, 0x5            
    4105     1008          1CDE                    BTFSS 0x5E, 0x1            
    4106     1009          280E                    GOTO 0xE                   
    4107     100A          10DE                    BCF 0x5E, 0x1              
    4108     100B          165E                    BSF 0x5E, 0x4              
    4109     100C          280E                    GOTO 0xE                   
    4110     100D          1683                    BSF STATUS, 0x5            
    4111     100E          08D9                    MOVF 0x59, F               
    4112     100F          1D03                    BTFSS STATUS, 0x2          
    4113     1010          2846                    GOTO 0x46                  
    4114     1011          204D                    CALL 0x4D                  
    4115     1012          00A8                    MOVWF 0x28                 
    4116     1013          39FF                    ANDLW 0xFF                 
    4117     1014          1903                    BTFSC STATUS, 0x2          
    4118     1015          2843                    GOTO 0x43                  
    4119     1016          0828                    MOVF 0x28, W               
    4120     1017          1683                    BSF STATUS, 0x5            
    4121     1018          00DA                    MOVWF 0x5A                 
    4122     1019          22FE                    CALL 0x2FE                 
    4123     101A          1283                    BCF STATUS, 0x5            
    4124     101B          1B26                    BTFSC 0x26, 0x6            
    4125     101C          2846                    GOTO 0x46                  
    4126     101D          1BA6                    BTFSC 0x26, 0x7            
    4127     101E          2846                    GOTO 0x46                  
    4128     101F          1683                    BSF STATUS, 0x5            
    4129     1020          195E                    BTFSC 0x5E, 0x2            
    4130     1021          2846                    GOTO 0x46                  
    4131     1022          145E                    BSF 0x5E, 0x0              
    4132     1023          11DE                    BCF 0x5E, 0x3              
    4133     1024          085A                    MOVF 0x5A, W               
    4134     1025          1283                    BCF STATUS, 0x5            
    4135     1026          00F0                    MOVWF 0x70                 
    4136     1027          00E0                    MOVWF 0x60                 
    4137     1028          3000                    MOVLW 0x0                  
    4138     1029          00F1                    MOVWF 0x71                 
    4139     102A          00F2                    MOVWF 0x72                 
    4140     102B          00F3                    MOVWF 0x73                 
    4141     102C          1683                    BSF STATUS, 0x5            
    4142     102D          0838                    MOVF 0x38, W               
    4143     102E          1283                    BCF STATUS, 0x5            
    4144     102F          00F4                    MOVWF 0x74                 
    4145     1030          1683                    BSF STATUS, 0x5            
    4146     1031          0839                    MOVF 0x39, W               
    4147     1032          1283                    BCF STATUS, 0x5            
    4148     1033          00F5                    MOVWF 0x75                 
    4149     1034          1683                    BSF STATUS, 0x5            
    4150     1035          083A                    MOVF 0x3A, W               
    4151     1036          1283                    BCF STATUS, 0x5            
    4152     1037          00F6                    MOVWF 0x76                 
    4153     1038          1683                    BSF STATUS, 0x5            
    4154     1039          083B                    MOVF 0x3B, W               
    4155     103A          1283                    BCF STATUS, 0x5            
    4156     103B          00F7                    MOVWF 0x77                 
    4157     103C          306A                    MOVLW 0x6A                 
    4158     103D          0640                    XORWF 0x40, W              
    4159     103E          1D03                    BTFSS STATUS, 0x2          
    4160     103F          2846                    GOTO 0x46                  
    4161     1040          300F                    MOVLW 0xF                  
    4162     1041          05F0                    ANDWF 0x70, F              
    4163     1042          2846                    GOTO 0x46                  
    4164     1043          1683                    BSF STATUS, 0x5            
    4165     1044          3000                    MOVLW 0x0                  
    4166     1045          00DA                    MOVWF 0x5A                 
    4167     1046          1683                    BSF STATUS, 0x5            
    4168     1047          0859                    MOVF 0x59, W               
    4169     1048          1903                    BTFSC STATUS, 0x2          
    4170     1049          284B                    GOTO 0x4B                  
    4171     104A          03D9                    DECF 0x59, F               
    4172     104B          1283                    BCF STATUS, 0x5            
    4173     104C          0008                    RETURN                     
    4174     104D          1283                    BCF STATUS, 0x5            
    4175     104E          30F7                    MOVLW 0xF7                 
    4176     104F          00AA                    MOVWF 0x2A                 
    4177     1050          2489                    CALL 0x489                 
    4178     1051          3EFF                    ADDLW 0xFF                 
    4179     1052          1903                    BTFSC STATUS, 0x2          
    4180     1053          3400                    RETLW 0x0                  
    4181     1054          1283                    BCF STATUS, 0x5            
    4182     1055          082A                    MOVF 0x2A, W               
    4183     1056          0087                    MOVWF PORTC                
    4184     1057          2182                    CALL 0x182                 
    4185     1058          0807                    MOVF PORTC, W              
    4186     1059          00A9                    MOVWF 0x29                 
    4187     105A          1DA4                    BTFSS 0x24, 0x3            
    4188     105B          287B                    GOTO 0x7B                  
    4189     105C          082A                    MOVF 0x2A, W               
    4190     105D          3901                    ANDLW 0x1                  
    4191     105E          1D03                    BTFSS STATUS, 0x2          
    4192     105F          2867                    GOTO 0x67                  
    4193     1060          0829                    MOVF 0x29, W               
    4194     1061          3980                    ANDLW 0x80                 
    4195     1062          1903                    BTFSC STATUS, 0x2          
    4196     1063          2866                    GOTO 0x66                  
    4197     1064          1224                    BCF 0x24, 0x4              
    4198     1065          2867                    GOTO 0x67                  
    4199     1066          1624                    BSF 0x24, 0x4              
    4200     1067          082A                    MOVF 0x2A, W               
    4201     1068          3902                    ANDLW 0x2                  
    4202     1069          1D03                    BTFSS STATUS, 0x2          
    4203     106A          287B                    GOTO 0x7B                  
    4204     106B          0829                    MOVF 0x29, W               
    4205     106C          3980                    ANDLW 0x80                 
    4206     106D          1D03                    BTFSS STATUS, 0x2          
    4207     106E          2874                    GOTO 0x74                  
    4208     106F          1683                    BSF STATUS, 0x5            
    4209     1070          1EDF                    BTFSS 0x5F, 0x5            
    4210     1071          287B                    GOTO 0x7B                  
    4211     1072          12DF                    BCF 0x5F, 0x5              
    4212     1073          2878                    GOTO 0x78                  
    4213     1074          1683                    BSF STATUS, 0x5            
    4214     1075          1ADF                    BTFSC 0x5F, 0x5            
    4215     1076          287B                    GOTO 0x7B                  
    4216     1077          16DF                    BSF 0x5F, 0x5              
    4217     1078          118A                    BCF PCLATH, 0x3            
    4218     1079          120A                    BCF PCLATH, 0x4            
    4219     107A          2CBE                    GOTO 0x4BE                 
    4220     107B          1283                    BCF STATUS, 0x5            
    4221     107C          0829                    MOVF 0x29, W               
    4222     107D          1683                    BSF STATUS, 0x5            
    4223     107E          3970                    ANDLW 0x70                 
    4224     107F          3A70                    XORLW 0x70                 
    4225     1080          1D03                    BTFSS STATUS, 0x2          
    4226     1081          28DF                    GOTO 0xDF                  
    4227     1082          1283                    BCF STATUS, 0x5            
    4228     1083          1403                    BSF STATUS, 0x0            
    4229     1084          0CAA                    RRF 0x2A, F                
    4230     1085          1803                    BTFSC STATUS, 0x0          
    4231     1086          2850                    GOTO 0x50                  
    4232     1087          1683                    BSF STATUS, 0x5            
    4233     1088          195F                    BTFSC 0x5F, 0x2            
    4234     1089          294B                    GOTO 0x14B                 
    4235     108A          118A                    BCF PCLATH, 0x3            
    4236     108B          160A                    BSF PCLATH, 0x4            
    4237     108C          2489                    CALL 0x489                 
    4238     108D          118A                    BCF PCLATH, 0x3            
    4239     108E          160A                    BSF PCLATH, 0x4            
    4240     108F          3EFF                    ADDLW 0xFF                 
    4241     1090          1903                    BTFSC STATUS, 0x2          
    4242     1091          2952                    GOTO 0x152                 
    4243     1092          1683                    BSF STATUS, 0x5            
    4244     1093          1DDF                    BTFSS 0x5F, 0x3            
    4245     1094          2897                    GOTO 0x97                  
    4246     1095          11DF                    BCF 0x5F, 0x3              
    4247     1096          2952                    GOTO 0x152                 
    4248     1097          3000                    MOVLW 0x0                  
    4249     1098          00DB                    MOVWF 0x5B                 
    4250     1099          18DE                    BTFSC 0x5E, 0x1            
    4251     109A          28D7                    GOTO 0xD7                  
    4252     109B          1283                    BCF STATUS, 0x5            
    4253     109C          1DA4                    BTFSS 0x24, 0x3            
    4254     109D          28C2                    GOTO 0xC2                  
    4255     109E          1683                    BSF STATUS, 0x5            
    4256     109F          1CE4                    BTFSS 0x64, 0x1            
    4257     10A0          28AC                    GOTO 0xAC                  
    4258     10A1          1283                    BCF STATUS, 0x5            
    4259     10A2          1FA4                    BTFSS 0x24, 0x7            
    4260     10A3          28A7                    GOTO 0xA7                  
    4261     10A4          1F86                    BTFSS PORTB, 0x7           
    4262     10A5          28B2                    GOTO 0xB2                  
    4263     10A6          28B5                    GOTO 0xB5                  
    4264     10A7          1EA4                    BTFSS 0x24, 0x5            
    4265     10A8          28AB                    GOTO 0xAB                  
    4266     10A9          1E86                    BTFSS PORTB, 0x5           
    4267     10AA          28B2                    GOTO 0xB2                  
    4268     10AB          28B5                    GOTO 0xB5                  
    4269     10AC          1283                    BCF STATUS, 0x5            
    4270     10AD          18A3                    BTFSC 0x23, 0x1            
    4271     10AE          28B7                    GOTO 0xB7                  
    4272     10AF          1683                    BSF STATUS, 0x5            
    4273     10B0          1C64                    BTFSS 0x64, 0x0            
    4274     10B1          28B5                    GOTO 0xB5                  
    4275     10B2          1283                    BCF STATUS, 0x5            
    4276     10B3          1306                    BCF PORTB, 0x6             
    4277     10B4          28B7                    GOTO 0xB7                  
    4278     10B5          1283                    BCF STATUS, 0x5            
    4279     10B6          1706                    BSF PORTB, 0x6             
    4280     10B7          1683                    BSF STATUS, 0x5            
    4281     10B8          1964                    BTFSC 0x64, 0x2            
    4282     10B9          28D7                    GOTO 0xD7                  
    4283     10BA          135E                    BCF 0x5E, 0x6              
    4284     10BB          1283                    BCF STATUS, 0x5            
    4285     10BC          158A                    BSF PCLATH, 0x3            
    4286     10BD          120A                    BCF PCLATH, 0x4            
    4287     10BE          26A3                    CALL 0x6A3                 
    4288     10BF          118A                    BCF PCLATH, 0x3            
    4289     10C0          160A                    BSF PCLATH, 0x4            
    4290     10C1          28D7                    GOTO 0xD7                  
    4291     10C2          1683                    BSF STATUS, 0x5            
    4292     10C3          13DE                    BCF 0x5E, 0x7              
    4293     10C4          1283                    BCF STATUS, 0x5            
    4294     10C5          1122                    BCF 0x22, 0x2              
    4295     10C6          1683                    BSF STATUS, 0x5            
    4296     10C7          1AB3                    BTFSC 0x33, 0x5            
    4297     10C8          28D7                    GOTO 0xD7                  
    4298     10C9          135E                    BCF 0x5E, 0x6              
    4299     10CA          1283                    BCF STATUS, 0x5            
    4300     10CB          118A                    BCF PCLATH, 0x3            
    4301     10CC          120A                    BCF PCLATH, 0x4            
    4302     10CD          2257                    CALL 0x257                 
    4303     10CE          118A                    BCF PCLATH, 0x3            
    4304     10CF          160A                    BSF PCLATH, 0x4            
    4305     10D0          1D03                    BTFSS STATUS, 0x2          
    4306     10D1          28D7                    GOTO 0xD7                  
    4307     10D2          158A                    BSF PCLATH, 0x3            
    4308     10D3          120A                    BCF PCLATH, 0x4            
    4309     10D4          26A3                    CALL 0x6A3                 
    4310     10D5          118A                    BCF PCLATH, 0x3            
    4311     10D6          160A                    BSF PCLATH, 0x4            
    4312     10D7          1283                    BCF STATUS, 0x5            
    4313     10D8          30FF                    MOVLW 0xFF                 
    4314     10D9          0087                    MOVWF PORTC                
    4315     10DA          1683                    BSF STATUS, 0x5            
    4316     10DB          30FF                    MOVLW 0xFF                 
    4317     10DC          00DA                    MOVWF 0x5A                 
    4318     10DD          00DC                    MOVWF 0x5C                 
    4319     10DE          2952                    GOTO 0x152                 
    4320     10DF          1683                    BSF STATUS, 0x5            
    4321     10E0          15DF                    BSF 0x5F, 0x3              
    4322     10E1          18DE                    BTFSC 0x5E, 0x1            
    4323     10E2          290B                    GOTO 0x10B                 
    4324     10E3          1283                    BCF STATUS, 0x5            
    4325     10E4          1DA4                    BTFSS 0x24, 0x3            
    4326     10E5          28FE                    GOTO 0xFE                  
    4327     10E6          1683                    BSF STATUS, 0x5            
    4328     10E7          18E4                    BTFSC 0x64, 0x1            
    4329     10E8          28F4                    GOTO 0xF4                  
    4330     10E9          1283                    BCF STATUS, 0x5            
    4331     10EA          18A3                    BTFSC 0x23, 0x1            
    4332     10EB          28F6                    GOTO 0xF6                  
    4333     10EC          1683                    BSF STATUS, 0x5            
    4334     10ED          1E64                    BTFSS 0x64, 0x4            
    4335     10EE          28F6                    GOTO 0xF6                  
    4336     10EF          1C64                    BTFSS 0x64, 0x0            
    4337     10F0          28F4                    GOTO 0xF4                  
    4338     10F1          1283                    BCF STATUS, 0x5            
    4339     10F2          1706                    BSF PORTB, 0x6             
    4340     10F3          28F6                    GOTO 0xF6                  
    4341     10F4          1283                    BCF STATUS, 0x5            
    4342     10F5          1306                    BCF PORTB, 0x6             
    4343     10F6          1283                    BCF STATUS, 0x5            
    4344     10F7          1F22                    BTFSS 0x22, 0x6            
    4345     10F8          290B                    GOTO 0x10B                 
    4346     10F9          1683                    BSF STATUS, 0x5            
    4347     10FA          19E4                    BTFSC 0x64, 0x3            
    4348     10FB          175E                    BSF 0x5E, 0x6              
    4349     10FC          1283                    BCF STATUS, 0x5            
    4350     10FD          290B                    GOTO 0x10B                 
    4351     10FE          1683                    BSF STATUS, 0x5            
    4352     10FF          195E                    BTFSC 0x5E, 0x2            
    4353     1100          2903                    GOTO 0x103                 
    4354     1101          1932                    BTFSC 0x32, 0x2            
    4355     1102          2906                    GOTO 0x106                 
    4356     1103          17DE                    BSF 0x5E, 0x7              
    4357     1104          1283                    BCF STATUS, 0x5            
    4358     1105          1522                    BSF 0x22, 0x2              
    4359     1106          1683                    BSF STATUS, 0x5            
    4360     1107          1AB3                    BTFSC 0x33, 0x5            
    4361     1108          290B                    GOTO 0x10B                 
    4362     1109          175E                    BSF 0x5E, 0x6              
    4363     110A          1283                    BCF STATUS, 0x5            
    4364     110B          1283                    BCF STATUS, 0x5            
    4365     110C          30FF                    MOVLW 0xFF                 
    4366     110D          0087                    MOVWF PORTC                
    4367     110E          0829                    MOVF 0x29, W               
    4368     110F          1683                    BSF STATUS, 0x5            
    4369     1110          065C                    XORWF 0x5C, W              
    4370     1111          1903                    BTFSC STATUS, 0x2          
    4371     1112          2952                    GOTO 0x152                 
    4372     1113          1283                    BCF STATUS, 0x5            
    4373     1114          0829                    MOVF 0x29, W               
    4374     1115          1683                    BSF STATUS, 0x5            
    4375     1116          00DC                    MOVWF 0x5C                 
    4376     1117          1C5C                    BTFSS 0x5C, 0x0            
    4377     1118          2923                    GOTO 0x123                 
    4378     1119          1CDC                    BTFSS 0x5C, 0x1            
    4379     111A          2921                    GOTO 0x121                 
    4380     111B          1D5C                    BTFSS 0x5C, 0x2            
    4381     111C          291F                    GOTO 0x11F                 
    4382     111D          3009                    MOVLW 0x9                  
    4383     111E          2924                    GOTO 0x124                 
    4384     111F          3006                    MOVLW 0x6                  
    4385     1120          2924                    GOTO 0x124                 
    4386     1121          3003                    MOVLW 0x3                  
    4387     1122          2924                    GOTO 0x124                 
    4388     1123          3000                    MOVLW 0x0                  
    4389     1124          1283                    BCF STATUS, 0x5            
    4390     1125          00A8                    MOVWF 0x28                 
    4391     1126          1683                    BSF STATUS, 0x5            
    4392     1127          1E5C                    BTFSS 0x5C, 0x4            
    4393     1128          2930                    GOTO 0x130                 
    4394     1129          1283                    BCF STATUS, 0x5            
    4395     112A          0AA8                    INCF 0x28, F               
    4396     112B          1683                    BSF STATUS, 0x5            
    4397     112C          1EDC                    BTFSS 0x5C, 0x5            
    4398     112D          2930                    GOTO 0x130                 
    4399     112E          1283                    BCF STATUS, 0x5            
    4400     112F          0AA8                    INCF 0x28, F               
    4401     1130          3002                    MOVLW 0x2                  
    4402     1131          1283                    BCF STATUS, 0x5            
    4403     1132          19A4                    BTFSC 0x24, 0x3            
    4404     1133          2935                    GOTO 0x135                 
    4405     1134          30FF                    MOVLW 0xFF                 
    4406     1135          1683                    BSF STATUS, 0x5            
    4407     1136          00D9                    MOVWF 0x59                 
    4408     1137          215C                    CALL 0x15C                 
    4409     1138          00A9                    MOVWF 0x29                 
    4410     1139          1683                    BSF STATUS, 0x5            
    4411     113A          3000                    MOVLW 0x0                  
    4412     113B          065B                    XORWF 0x5B, W              
    4413     113C          1D03                    BTFSS STATUS, 0x2          
    4414     113D          2944                    GOTO 0x144                 
    4415     113E          1283                    BCF STATUS, 0x5            
    4416     113F          0829                    MOVF 0x29, W               
    4417     1140          1683                    BSF STATUS, 0x5            
    4418     1141          00DB                    MOVWF 0x5B                 
    4419     1142          155F                    BSF 0x5F, 0x2              
    4420     1143          1283                    BCF STATUS, 0x5            
    4421     1144          300F                    MOVLW 0xF                  
    4422     1145          052A                    ANDWF 0x2A, W              
    4423     1146          00A9                    MOVWF 0x29                 
    4424     1147          300E                    MOVLW 0xE                  
    4425     1148          0629                    XORWF 0x29, W              
    4426     1149          1D03                    BTFSS STATUS, 0x2          
    4427     114A          2882                    GOTO 0x82                  
    4428     114B          1683                    BSF STATUS, 0x5            
    4429     114C          1D5F                    BTFSS 0x5F, 0x2            
    4430     114D          2952                    GOTO 0x152                 
    4431     114E          115F                    BCF 0x5F, 0x2              
    4432     114F          085B                    MOVF 0x5B, W               
    4433     1150          1283                    BCF STATUS, 0x5            
    4434     1151          0008                    RETURN                     
    4435     1152          1CDE                    BTFSS 0x5E, 0x1            
    4436     1153          295A                    GOTO 0x15A                 
    4437     1154          30B7                    MOVLW 0xB7                 
    4438     1155          065C                    XORWF 0x5C, W              
    4439     1156          1903                    BTFSC STATUS, 0x2          
    4440     1157          295A                    GOTO 0x15A                 
    4441     1158          115E                    BCF 0x5E, 0x2              
    4442     1159          10DE                    BCF 0x5E, 0x1              
    4443     115A          1283                    BCF STATUS, 0x5            
    4444     115B          3400                    RETLW 0x0                  
    4445     115C          1283                    BCF STATUS, 0x5            
    4446     115D          0AA8                    INCF 0x28, F               
    4447     115E          0BA8                    DECFSZ 0x28, F             
    4448     115F          2961                    GOTO 0x161                 
    4449     1160          34E1                    RETLW 0xE1                 
    4450     1161          0BA8                    DECFSZ 0x28, F             
    4451     1162          2964                    GOTO 0x164                 
    4452     1163          34D2                    RETLW 0xD2                 
    4453     1164          0BA8                    DECFSZ 0x28, F             
    4454     1165          2967                    GOTO 0x167                 
    4455     1166          34C3                    RETLW 0xC3                 
    4456     1167          0BA8                    DECFSZ 0x28, F             
    4457     1168          296A                    GOTO 0x16A                 
    4458     1169          34B4                    RETLW 0xB4                 
    4459     116A          0BA8                    DECFSZ 0x28, F             
    4460     116B          296D                    GOTO 0x16D                 
    4461     116C          34A5                    RETLW 0xA5                 
    4462     116D          0BA8                    DECFSZ 0x28, F             
    4463     116E          2970                    GOTO 0x170                 
    4464     116F          3496                    RETLW 0x96                 
    4465     1170          0BA8                    DECFSZ 0x28, F             
    4466     1171          2973                    GOTO 0x173                 
    4467     1172          3487                    RETLW 0x87                 
    4468     1173          0BA8                    DECFSZ 0x28, F             
    4469     1174          2976                    GOTO 0x176                 
    4470     1175          3478                    RETLW 0x78                 
    4471     1176          0BA8                    DECFSZ 0x28, F             
    4472     1177          2979                    GOTO 0x179                 
    4473     1178          3469                    RETLW 0x69                 
    4474     1179          0BA8                    DECFSZ 0x28, F             
    4475     117A          297C                    GOTO 0x17C                 
    4476     117B          345A                    RETLW 0x5A                 
    4477     117C          0BA8                    DECFSZ 0x28, F             
    4478     117D          297F                    GOTO 0x17F                 
    4479     117E          34F0                    RETLW 0xF0                 
    4480     117F          344B                    RETLW 0x4B                 
    4481     1180          3005                    MOVLW 0x5                  
    4482     1181          2986                    GOTO 0x186                 
    4483     1182          3003                    MOVLW 0x3                  
    4484     1183          2986                    GOTO 0x186                 
    4485     1184          3002                    MOVLW 0x2                  
    4486     1185          2986                    GOTO 0x186                 
    4487     1186          1683                    BSF STATUS, 0x5            
    4488     1187          00DD                    MOVWF 0x5D                 
    4489     1188          0BDD                    DECFSZ 0x5D, F             
    4490     1189          2988                    GOTO 0x188                 
    4491     118A          1283                    BCF STATUS, 0x5            
    4492     118B          0008                    RETURN                     
    4493     118C          19A3                    BTFSC 0x23, 0x3            
    4494     118D          29C2                    GOTO 0x1C2                 
    4495     118E          1683                    BSF STATUS, 0x5            
    4496     118F          18D8                    BTFSC 0x58, 0x1            
    4497     1190          29BB                    GOTO 0x1BB                 
    4498     1191          1958                    BTFSC 0x58, 0x2            
    4499     1192          29BF                    GOTO 0x1BF                 
    4500     1193          1283                    BCF STATUS, 0x5            
    4501     1194          158A                    BSF PCLATH, 0x3            
    4502     1195          120A                    BCF PCLATH, 0x4            
    4503     1196          2748                    CALL 0x748                 
    4504     1197          118A                    BCF PCLATH, 0x3            
    4505     1198          160A                    BSF PCLATH, 0x4            
    4506     1199          1903                    BTFSC STATUS, 0x2          
    4507     119A          21F4                    CALL 0x1F4                 
    4508     119B          2660                    CALL 0x660                 
    4509     119C          15A2                    BSF 0x22, 0x3              
    4510     119D          30E0                    MOVLW 0xE0                 
    4511     119E          00C1                    MOVWF 0x41                 
    4512     119F          3000                    MOVLW 0x0                  
    4513     11A0          118A                    BCF PCLATH, 0x3            
    4514     11A1          160A                    BSF PCLATH, 0x4            
    4515     11A2          23B9                    CALL 0x3B9                 
    4516     11A3          118A                    BCF PCLATH, 0x3            
    4517     11A4          160A                    BSF PCLATH, 0x4            
    4518     11A5          118A                    BCF PCLATH, 0x3            
    4519     11A6          160A                    BSF PCLATH, 0x4            
    4520     11A7          2371                    CALL 0x371                 
    4521     11A8          118A                    BCF PCLATH, 0x3            
    4522     11A9          160A                    BSF PCLATH, 0x4            
    4523     11AA          2668                    CALL 0x668                 
    4524     11AB          1422                    BSF 0x22, 0x0              
    4525     11AC          30E0                    MOVLW 0xE0                 
    4526     11AD          00C1                    MOVWF 0x41                 
    4527     11AE          3000                    MOVLW 0x0                  
    4528     11AF          118A                    BCF PCLATH, 0x3            
    4529     11B0          160A                    BSF PCLATH, 0x4            
    4530     11B1          23B9                    CALL 0x3B9                 
    4531     11B2          118A                    BCF PCLATH, 0x3            
    4532     11B3          160A                    BSF PCLATH, 0x4            
    4533     11B4          118A                    BCF PCLATH, 0x3            
    4534     11B5          160A                    BSF PCLATH, 0x4            
    4535     11B6          2371                    CALL 0x371                 
    4536     11B7          118A                    BCF PCLATH, 0x3            
    4537     11B8          160A                    BSF PCLATH, 0x4            
    4538     11B9          11A2                    BCF 0x22, 0x3              
    4539     11BA          0008                    RETURN                     
    4540     11BB          1283                    BCF STATUS, 0x5            
    4541     11BC          158A                    BSF PCLATH, 0x3            
    4542     11BD          120A                    BCF PCLATH, 0x4            
    4543     11BE          28F4                    GOTO 0xF4                  
    4544     11BF          158A                    BSF PCLATH, 0x3            
    4545     11C0          120A                    BCF PCLATH, 0x4            
    4546     11C1          2F65                    GOTO 0x765                 
    4547     11C2          0064                    CLRWDT                     
    4548     11C3          118A                    BCF PCLATH, 0x3            
    4549     11C4          120A                    BCF PCLATH, 0x4            
    4550     11C5          225B                    CALL 0x25B                 
    4551     11C6          118A                    BCF PCLATH, 0x3            
    4552     11C7          160A                    BSF PCLATH, 0x4            
    4553     11C8          1D03                    BTFSS STATUS, 0x2          
    4554     11C9          29CE                    GOTO 0x1CE                 
    4555     11CA          1022                    BCF 0x22, 0x0              
    4556     11CB          1186                    BCF PORTB, 0x3             
    4557     11CC          1106                    BCF PORTB, 0x2             
    4558     11CD          29DB                    GOTO 0x1DB                 
    4559     11CE          1422                    BSF 0x22, 0x0              
    4560     11CF          118A                    BCF PCLATH, 0x3            
    4561     11D0          120A                    BCF PCLATH, 0x4            
    4562     11D1          224E                    CALL 0x24E                 
    4563     11D2          118A                    BCF PCLATH, 0x3            
    4564     11D3          160A                    BSF PCLATH, 0x4            
    4565     11D4          1903                    BTFSC STATUS, 0x2          
    4566     11D5          29D9                    GOTO 0x1D9                 
    4567     11D6          1586                    BSF PORTB, 0x3             
    4568     11D7          1106                    BCF PORTB, 0x2             
    4569     11D8          29DB                    GOTO 0x1DB                 
    4570     11D9          1186                    BCF PORTB, 0x3             
    4571     11DA          1506                    BSF PORTB, 0x2             
    4572     11DB          118A                    BCF PCLATH, 0x3            
    4573     11DC          120A                    BCF PCLATH, 0x4            
    4574     11DD          224E                    CALL 0x24E                 
    4575     11DE          118A                    BCF PCLATH, 0x3            
    4576     11DF          160A                    BSF PCLATH, 0x4            
    4577     11E0          1903                    BTFSC STATUS, 0x2          
    4578     11E1          29E4                    GOTO 0x1E4                 
    4579     11E2          14A2                    BSF 0x22, 0x1              
    4580     11E3          29E5                    GOTO 0x1E5                 
    4581     11E4          10A2                    BCF 0x22, 0x1              
    4582     11E5          118A                    BCF PCLATH, 0x3            
    4583     11E6          120A                    BCF PCLATH, 0x4            
    4584     11E7          2257                    CALL 0x257                 
    4585     11E8          118A                    BCF PCLATH, 0x3            
    4586     11E9          160A                    BSF PCLATH, 0x4            
    4587     11EA          1903                    BTFSC STATUS, 0x2          
    4588     11EB          29EE                    GOTO 0x1EE                 
    4589     11EC          15A2                    BSF 0x22, 0x3              
    4590     11ED          29F3                    GOTO 0x1F3                 
    4591     11EE          158A                    BSF PCLATH, 0x3            
    4592     11EF          120A                    BCF PCLATH, 0x4            
    4593     11F0          26A3                    CALL 0x6A3                 
    4594     11F1          118A                    BCF PCLATH, 0x3            
    4595     11F2          160A                    BSF PCLATH, 0x4            
    4596     11F3          29C2                    GOTO 0x1C2                 
    4597     11F4          22CC                    CALL 0x2CC                 
    4598     11F5          1486                    BSF PORTB, 0x1             
    4599     11F6          21FF                    CALL 0x1FF                 
    4600     11F7          1086                    BCF PORTB, 0x1             
    4601     11F8          21FF                    CALL 0x1FF                 
    4602     11F9          1506                    BSF PORTB, 0x2             
    4603     11FA          21FF                    CALL 0x1FF                 
    4604     11FB          21FF                    CALL 0x1FF                 
    4605     11FC          1106                    BCF PORTB, 0x2             
    4606     11FD          21FF                    CALL 0x1FF                 
    4607     11FE          29F5                    GOTO 0x1F5                 
    4608     11FF          300A                    MOVLW 0xA                  
    4609     1200          00B6                    MOVWF 0x36                 
    4610     1201          118A                    BCF PCLATH, 0x3            
    4611     1202          120A                    BCF PCLATH, 0x4            
    4612     1203          2241                    CALL 0x241                 
    4613     1204          118A                    BCF PCLATH, 0x3            
    4614     1205          160A                    BSF PCLATH, 0x4            
    4615     1206          1903                    BTFSC STATUS, 0x2          
    4616     1207          1186                    BCF PORTB, 0x3             
    4617     1208          1D03                    BTFSS STATUS, 0x2          
    4618     1209          1586                    BSF PORTB, 0x3             
    4619     120A          3059                    MOVLW 0x59                 
    4620     120B          00C1                    MOVWF 0x41                 
    4621     120C          3000                    MOVLW 0x0                  
    4622     120D          118A                    BCF PCLATH, 0x3            
    4623     120E          160A                    BSF PCLATH, 0x4            
    4624     120F          23B9                    CALL 0x3B9                 
    4625     1210          118A                    BCF PCLATH, 0x3            
    4626     1211          160A                    BSF PCLATH, 0x4            
    4627     1212          118A                    BCF PCLATH, 0x3            
    4628     1213          160A                    BSF PCLATH, 0x4            
    4629     1214          2371                    CALL 0x371                 
    4630     1215          118A                    BCF PCLATH, 0x3            
    4631     1216          160A                    BSF PCLATH, 0x4            
    4632     1217          118A                    BCF PCLATH, 0x3            
    4633     1218          160A                    BSF PCLATH, 0x4            
    4634     1219          2371                    CALL 0x371                 
    4635     121A          118A                    BCF PCLATH, 0x3            
    4636     121B          160A                    BSF PCLATH, 0x4            
    4637     121C          0BB6                    DECFSZ 0x36, F             
    4638     121D          2A01                    GOTO 0x201                 
    4639     121E          0008                    RETURN                     
    4640     121F          1683                    BSF STATUS, 0x5            
    4641     1220          1D5E                    BTFSS 0x5E, 0x2            
    4642     1221          0008                    RETURN                     
    4643     1222          1E5E                    BTFSS 0x5E, 0x4            
    4644     1223          2A2E                    GOTO 0x22E                 
    4645     1224          125E                    BCF 0x5E, 0x4              
    4646     1225          3022                    MOVLW 0x22                 
    4647     1226          00E0                    MOVWF 0x60                 
    4648     1227          14DF                    BSF 0x5F, 0x1              
    4649     1228          1686                    BSF PORTB, 0x5             
    4650     1229          1786                    BSF PORTB, 0x7             
    4651     122A          1283                    BCF STATUS, 0x5            
    4652     122B          22DA                    CALL 0x2DA                 
    4653     122C          1326                    BCF 0x26, 0x6              
    4654     122D          2235                    CALL 0x235                 
    4655     122E          1683                    BSF STATUS, 0x5            
    4656     122F          1EDE                    BTFSS 0x5E, 0x5            
    4657     1230          2A33                    GOTO 0x233                 
    4658     1231          2241                    CALL 0x241                 
    4659     1232          2530                    CALL 0x530                 
    4660     1233          1283                    BCF STATUS, 0x5            
    4661     1234          0008                    RETURN                     
    4662     1235          158A                    BSF PCLATH, 0x3            
    4663     1236          120A                    BCF PCLATH, 0x4            
    4664     1237          26A3                    CALL 0x6A3                 
    4665     1238          118A                    BCF PCLATH, 0x3            
    4666     1239          160A                    BSF PCLATH, 0x4            
    4667     123A          1683                    BSF STATUS, 0x5            
    4668     123B          12DE                    BCF 0x5E, 0x5              
    4669     123C          3008                    MOVLW 0x8                  
    4670     123D          00AC                    MOVWF 0x2C                 
    4671     123E          1283                    BCF STATUS, 0x5            
    4672     123F          1512                    BSF T2CON, 0x2             
    4673     1240          0008                    RETURN                     
    4674     1241          1683                    BSF STATUS, 0x5            
    4675     1242          115E                    BCF 0x5E, 0x2              
    4676     1243          16DE                    BSF 0x5E, 0x5              
    4677     1244          10DF                    BCF 0x5F, 0x1              
    4678     1245          01A7                    CLRF 0x27                  
    4679     1246          1283                    BCF STATUS, 0x5            
    4680     1247          1112                    BCF T2CON, 0x2             
    4681     1248          0191                    CLRF TMR2                  
    4682     1249          1326                    BCF 0x26, 0x6              
    4683     124A          13A6                    BCF 0x26, 0x7              
    4684     124B          2668                    CALL 0x668                 
    4685     124C          158A                    BSF PCLATH, 0x3            
    4686     124D          120A                    BCF PCLATH, 0x4            
    4687     124E          26A3                    CALL 0x6A3                 
    4688     124F          118A                    BCF PCLATH, 0x3            
    4689     1250          160A                    BSF PCLATH, 0x4            
    4690     1251          22DA                    CALL 0x2DA                 
    4691     1252          1683                    BSF STATUS, 0x5            
    4692     1253          1E5F                    BTFSS 0x5F, 0x4            
    4693     1254          2A5C                    GOTO 0x25C                 
    4694     1255          125F                    BCF 0x5F, 0x4              
    4695     1256          2356                    CALL 0x356                 
    4696     1257          118A                    BCF PCLATH, 0x3            
    4697     1258          120A                    BCF PCLATH, 0x4            
    4698     1259          271E                    CALL 0x71E                 
    4699     125A          118A                    BCF PCLATH, 0x3            
    4700     125B          160A                    BSF PCLATH, 0x4            
    4701     125C          1683                    BSF STATUS, 0x5            
    4702     125D          3001                    MOVLW 0x1                  
    4703     125E          0086                    MOVWF PORTB                
    4704     125F          1283                    BCF STATUS, 0x5            
    4705     1260          30E0                    MOVLW 0xE0                 
    4706     1261          0486                    IORWF PORTB, F             
    4707     1262          118A                    BCF PCLATH, 0x3            
    4708     1263          120A                    BCF PCLATH, 0x4            
    4709     1264          2909                    GOTO 0x109                 
    4710     1265          1683                    BSF STATUS, 0x5            
    4711     1266          1CDE                    BTFSS 0x5E, 0x1            
    4712     1267          2A6A                    GOTO 0x26A                 
    4713     1268          1283                    BCF STATUS, 0x5            
    4714     1269          0008                    RETURN                     
    4715     126A          1683                    BSF STATUS, 0x5            
    4716     126B          1D5E                    BTFSS 0x5E, 0x2            
    4717     126C          2A6F                    GOTO 0x26F                 
    4718     126D          1283                    BCF STATUS, 0x5            
    4719     126E          2A86                    GOTO 0x286                 
    4720     126F          1283                    BCF STATUS, 0x5            
    4721     1270          1F26                    BTFSS 0x26, 0x6            
    4722     1271          2AAC                    GOTO 0x2AC                 
    4723     1272          118A                    BCF PCLATH, 0x3            
    4724     1273          160A                    BSF PCLATH, 0x4            
    4725     1274          2380                    CALL 0x380                 
    4726     1275          118A                    BCF PCLATH, 0x3            
    4727     1276          160A                    BSF PCLATH, 0x4            
    4728     1277          1D03                    BTFSS STATUS, 0x2          
    4729     1278          2A7B                    GOTO 0x27B                 
    4730     1279          1326                    BCF 0x26, 0x6              
    4731     127A          2AB7                    GOTO 0x2B7                 
    4732     127B          1BF7                    BTFSC 0x77, 0x7            
    4733     127C          2A79                    GOTO 0x279                 
    4734     127D          158A                    BSF PCLATH, 0x3            
    4735     127E          120A                    BCF PCLATH, 0x4            
    4736     127F          2748                    CALL 0x748                 
    4737     1280          118A                    BCF PCLATH, 0x3            
    4738     1281          160A                    BSF PCLATH, 0x4            
    4739     1282          1D24                    BTFSS 0x24, 0x2            
    4740     1283          2A8D                    GOTO 0x28D                 
    4741     1284          22CC                    CALL 0x2CC                 
    4742     1285          2A79                    GOTO 0x279                 
    4743     1286          1FF7                    BTFSS 0x77, 0x7            
    4744     1287          2A8B                    GOTO 0x28B                 
    4745     1288          17A6                    BSF 0x26, 0x7              
    4746     1289          1326                    BCF 0x26, 0x6              
    4747     128A          2ABB                    GOTO 0x2BB                 
    4748     128B          1726                    BSF 0x26, 0x6              
    4749     128C          13A6                    BCF 0x26, 0x7              
    4750     128D          1683                    BSF STATUS, 0x5            
    4751     128E          30FF                    MOVLW 0xFF                 
    4752     128F          00E2                    MOVWF 0x62                 
    4753     1290          1283                    BCF STATUS, 0x5            
    4754     1291          2356                    CALL 0x356                 
    4755     1292          118A                    BCF PCLATH, 0x3            
    4756     1293          120A                    BCF PCLATH, 0x4            
    4757     1294          21BE                    CALL 0x1BE                 
    4758     1295          118A                    BCF PCLATH, 0x3            
    4759     1296          160A                    BSF PCLATH, 0x4            
    4760     1297          1683                    BSF STATUS, 0x5            
    4761     1298          1D5E                    BTFSS 0x5E, 0x2            
    4762     1299          2A9C                    GOTO 0x29C                 
    4763     129A          1283                    BCF STATUS, 0x5            
    4764     129B          2AA7                    GOTO 0x2A7                 
    4765     129C          1283                    BCF STATUS, 0x5            
    4766     129D          3031                    MOVLW 0x31                 
    4767     129E          00C1                    MOVWF 0x41                 
    4768     129F          301C                    MOVLW 0x1C                 
    4769     12A0          118A                    BCF PCLATH, 0x3            
    4770     12A1          160A                    BSF PCLATH, 0x4            
    4771     12A2          23BF                    CALL 0x3BF                 
    4772     12A3          118A                    BCF PCLATH, 0x3            
    4773     12A4          160A                    BSF PCLATH, 0x4            
    4774     12A5          1326                    BCF 0x26, 0x6              
    4775     12A6          17A6                    BSF 0x26, 0x7              
    4776     12A7          22DA                    CALL 0x2DA                 
    4777     12A8          2530                    CALL 0x530                 
    4778     12A9          118A                    BCF PCLATH, 0x3            
    4779     12AA          120A                    BCF PCLATH, 0x4            
    4780     12AB          2909                    GOTO 0x109                 
    4781     12AC          1FA6                    BTFSS 0x26, 0x7            
    4782     12AD          3400                    RETLW 0x0                  
    4783     12AE          118A                    BCF PCLATH, 0x3            
    4784     12AF          160A                    BSF PCLATH, 0x4            
    4785     12B0          2380                    CALL 0x380                 
    4786     12B1          118A                    BCF PCLATH, 0x3            
    4787     12B2          160A                    BSF PCLATH, 0x4            
    4788     12B3          1903                    BTFSC STATUS, 0x2          
    4789     12B4          2AB7                    GOTO 0x2B7                 
    4790     12B5          1BF7                    BTFSC 0x77, 0x7            
    4791     12B6          2ABB                    GOTO 0x2BB                 
    4792     12B7          13A6                    BCF 0x26, 0x7              
    4793     12B8          2530                    CALL 0x530                 
    4794     12B9          1283                    BCF STATUS, 0x5            
    4795     12BA          3400                    RETLW 0x0                  
    4796     12BB          22DA                    CALL 0x2DA                 
    4797     12BC          118A                    BCF PCLATH, 0x3            
    4798     12BD          120A                    BCF PCLATH, 0x4            
    4799     12BE          21CA                    CALL 0x1CA                 
    4800     12BF          118A                    BCF PCLATH, 0x3            
    4801     12C0          160A                    BSF PCLATH, 0x4            
    4802     12C1          1683                    BSF STATUS, 0x5            
    4803     12C2          1D5E                    BTFSS 0x5E, 0x2            
    4804     12C3          2AC6                    GOTO 0x2C6                 
    4805     12C4          1283                    BCF STATUS, 0x5            
    4806     12C5          2AC8                    GOTO 0x2C8                 
    4807     12C6          1283                    BCF STATUS, 0x5            
    4808     12C7          13A6                    BCF 0x26, 0x7              
    4809     12C8          2530                    CALL 0x530                 
    4810     12C9          118A                    BCF PCLATH, 0x3            
    4811     12CA          120A                    BCF PCLATH, 0x4            
    4812     12CB          2909                    GOTO 0x109                 
    4813     12CC          2668                    CALL 0x668                 
    4814     12CD          3085                    MOVLW 0x85                 
    4815     12CE          00C1                    MOVWF 0x41                 
    4816     12CF          3003                    MOVLW 0x3                  
    4817     12D0          118A                    BCF PCLATH, 0x3            
    4818     12D1          160A                    BSF PCLATH, 0x4            
    4819     12D2          23B9                    CALL 0x3B9                 
    4820     12D3          118A                    BCF PCLATH, 0x3            
    4821     12D4          160A                    BSF PCLATH, 0x4            
    4822     12D5          118A                    BCF PCLATH, 0x3            
    4823     12D6          160A                    BSF PCLATH, 0x4            
    4824     12D7          2371                    CALL 0x371                 
    4825     12D8          118A                    BCF PCLATH, 0x3            
    4826     12D9          160A                    BSF PCLATH, 0x4            
    4827     12DA          1522                    BSF 0x22, 0x2              
    4828     12DB          3004                    MOVLW 0x4                  
    4829     12DC          158A                    BSF PCLATH, 0x3            
    4830     12DD          120A                    BCF PCLATH, 0x4            
    4831     12DE          267B                    CALL 0x67B                 
    4832     12DF          118A                    BCF PCLATH, 0x3            
    4833     12E0          160A                    BSF PCLATH, 0x4            
    4834     12E1          30A3                    MOVLW 0xA3                 
    4835     12E2          00C1                    MOVWF 0x41                 
    4836     12E3          3002                    MOVLW 0x2                  
    4837     12E4          118A                    BCF PCLATH, 0x3            
    4838     12E5          160A                    BSF PCLATH, 0x4            
    4839     12E6          23B9                    CALL 0x3B9                 
    4840     12E7          118A                    BCF PCLATH, 0x3            
    4841     12E8          160A                    BSF PCLATH, 0x4            
    4842     12E9          118A                    BCF PCLATH, 0x3            
    4843     12EA          160A                    BSF PCLATH, 0x4            
    4844     12EB          2371                    CALL 0x371                 
    4845     12EC          118A                    BCF PCLATH, 0x3            
    4846     12ED          160A                    BSF PCLATH, 0x4            
    4847     12EE          1122                    BCF 0x22, 0x2              
    4848     12EF          0008                    RETURN                     
    4849     12F0          30E0                    MOVLW 0xE0                 
    4850     12F1          00C1                    MOVWF 0x41                 
    4851     12F2          3000                    MOVLW 0x0                  
    4852     12F3          118A                    BCF PCLATH, 0x3            
    4853     12F4          160A                    BSF PCLATH, 0x4            
    4854     12F5          23B9                    CALL 0x3B9                 
    4855     12F6          118A                    BCF PCLATH, 0x3            
    4856     12F7          160A                    BSF PCLATH, 0x4            
    4857     12F8          118A                    BCF PCLATH, 0x3            
    4858     12F9          160A                    BSF PCLATH, 0x4            
    4859     12FA          2371                    CALL 0x371                 
    4860     12FB          118A                    BCF PCLATH, 0x3            
    4861     12FC          160A                    BSF PCLATH, 0x4            
    4862     12FD          0008                    RETURN                     
    4863     12FE          18DE                    BTFSC 0x5E, 0x1            
    4864     12FF          2B30                    GOTO 0x330                 
    4865     1300          1D5E                    BTFSS 0x5E, 0x2            
    4866     1301          2B30                    GOTO 0x330                 
    4867     1302          304B                    MOVLW 0x4B                 
    4868     1303          065A                    XORWF 0x5A, W              
    4869     1304          1D03                    BTFSS STATUS, 0x2          
    4870     1305          2B08                    GOTO 0x308                 
    4871     1306          16DE                    BSF 0x5E, 0x5              
    4872     1307          2B30                    GOTO 0x330                 
    4873     1308          305A                    MOVLW 0x5A                 
    4874     1309          065A                    XORWF 0x5A, W              
    4875     130A          1D03                    BTFSS STATUS, 0x2          
    4876     130B          2B0E                    GOTO 0x30E                 
    4877     130C          145F                    BSF 0x5F, 0x0              
    4878     130D          2B30                    GOTO 0x330                 
    4879     130E          1C5F                    BTFSS 0x5F, 0x0            
    4880     130F          2B30                    GOTO 0x330                 
    4881     1310          30E1                    MOVLW 0xE1                 
    4882     1311          065A                    XORWF 0x5A, W              
    4883     1312          1D03                    BTFSS STATUS, 0x2          
    4884     1313          2B17                    GOTO 0x317                 
    4885     1314          112D                    BCF 0x2D, 0x2              
    4886     1315          30BC                    MOVLW 0xBC                 
    4887     1316          2B2B                    GOTO 0x32B                 
    4888     1317          30D2                    MOVLW 0xD2                 
    4889     1318          065A                    XORWF 0x5A, W              
    4890     1319          1D03                    BTFSS STATUS, 0x2          
    4891     131A          2B1E                    GOTO 0x31E                 
    4892     131B          152D                    BSF 0x2D, 0x2              
    4893     131C          3012                    MOVLW 0x12                 
    4894     131D          2B2B                    GOTO 0x32B                 
    4895     131E          30C3                    MOVLW 0xC3                 
    4896     131F          065A                    XORWF 0x5A, W              
    4897     1320          1D03                    BTFSS STATUS, 0x2          
    4898     1321          2B25                    GOTO 0x325                 
    4899     1322          152D                    BSF 0x2D, 0x2              
    4900     1323          30BE                    MOVLW 0xBE                 
    4901     1324          2B2B                    GOTO 0x32B                 
    4902     1325          30B4                    MOVLW 0xB4                 
    4903     1326          065A                    XORWF 0x5A, W              
    4904     1327          1D03                    BTFSS STATUS, 0x2          
    4905     1328          2B30                    GOTO 0x330                 
    4906     1329          152D                    BSF 0x2D, 0x2              
    4907     132A          3059                    MOVLW 0x59                 
    4908     132B          105F                    BCF 0x5F, 0x0              
    4909     132C          00B0                    MOVWF 0x30                 
    4910     132D          00E2                    MOVWF 0x62                 
    4911     132E          165F                    BSF 0x5F, 0x4              
    4912     132F          22DA                    CALL 0x2DA                 
    4913     1330          0008                    RETURN                     
    4914     1331          3071                    MOVLW 0x71                 
    4915     1332          0084                    MOVWF FSR                  
    4916     1333          2B36                    GOTO 0x336                 
    4917     1334          3070                    MOVLW 0x70                 
    4918     1335          0084                    MOVWF FSR                  
    4919     1336          0D80                    RLF INDF, F                
    4920     1337          0A84                    INCF FSR, F                
    4921     1338          1D84                    BTFSS FSR, 0x3             
    4922     1339          2B36                    GOTO 0x336                 
    4923     133A          0008                    RETURN                     
    4924     133B          3070                    MOVLW 0x70                 
    4925     133C          0084                    MOVWF FSR                  
    4926     133D          3010                    MOVLW 0x10                 
    4927     133E          00A8                    MOVWF 0x28                 
    4928     133F          0D80                    RLF INDF, F                
    4929     1340          0A84                    INCF FSR, F                
    4930     1341          0BA8                    DECFSZ 0x28, F             
    4931     1342          2B3F                    GOTO 0x33F                 
    4932     1343          0008                    RETURN                     
    4933     1344          307F                    MOVLW 0x7F                 
    4934     1345          0084                    MOVWF FSR                  
    4935     1346          0C80                    RRF INDF, F                
    4936     1347          0384                    DECF FSR, F                
    4937     1348          1A04                    BTFSC FSR, 0x4             
    4938     1349          2B46                    GOTO 0x346                 
    4939     134A          0008                    RETURN                     
    4940     134B          1703                    BSF STATUS, 0x6            
    4941     134C          1283                    BCF STATUS, 0x5            
    4942     134D          3000                    MOVLW 0x0                  
    4943     134E          008D                    MOVWF PIR2                 
    4944     134F          1683                    BSF STATUS, 0x5            
    4945     1350          138C                    BCF PIR1, 0x7              
    4946     1351          140C                    BSF PIR1, 0x0              
    4947     1352          1283                    BCF STATUS, 0x5            
    4948     1353          080C                    MOVF PIR1, W               
    4949     1354          1303                    BCF STATUS, 0x6            
    4950     1355          0008                    RETURN                     
    4951     1356          1703                    BSF STATUS, 0x6            
    4952     1357          1683                    BSF STATUS, 0x5            
    4953     1358          188C                    BTFSC PIR1, 0x1            
    4954     1359          2B58                    GOTO 0x358                 
    4955     135A          1283                    BCF STATUS, 0x5            
    4956     135B          3000                    MOVLW 0x0                  
    4957     135C          008D                    MOVWF PIR2                 
    4958     135D          1303                    BCF STATUS, 0x6            
    4959     135E          1683                    BSF STATUS, 0x5            
    4960     135F          0862                    MOVF 0x62, W               
    4961     1360          1703                    BSF STATUS, 0x6            
    4962     1361          1283                    BCF STATUS, 0x5            
    4963     1362          008C                    MOVWF PIR1                 
    4964     1363          1683                    BSF STATUS, 0x5            
    4965     1364          138C                    BCF PIR1, 0x7              
    4966     1365          150C                    BSF PIR1, 0x2              
    4967     1366          138B                    BCF INTCON, 0x7            
    4968     1367          3055                    MOVLW 0x55                 
    4969     1368          008D                    MOVWF PIR2                 
    4970     1369          30AA                    MOVLW 0xAA                 
    4971     136A          008D                    MOVWF PIR2                 
    4972     136B          148C                    BSF PIR1, 0x1              
    4973     136C          178B                    BSF INTCON, 0x7            
    4974     136D          110C                    BCF PIR1, 0x2              
    4975     136E          1303                    BCF STATUS, 0x6            
    4976     136F          1283                    BCF STATUS, 0x5            
    4977     1370          0008                    RETURN                     
    4978     1371          0064                    CLRWDT                     
    4979     1372          2376                    CALL 0x376                 
    4980     1373          1D03                    BTFSS STATUS, 0x2          
    4981     1374          2B71                    GOTO 0x371                 
    4982     1375          0008                    RETURN                     
    4983     1376          128B                    BCF INTCON, 0x5            
    4984     1377          1683                    BSF STATUS, 0x5            
    4985     1378          110C                    BCF PIR1, 0x2              
    4986     1379          108C                    BCF PIR1, 0x1              
    4987     137A          1283                    BCF STATUS, 0x5            
    4988     137B          0847                    MOVF 0x47, W               
    4989     137C          00C2                    MOVWF 0x42                 
    4990     137D          0844                    MOVF 0x44, W               
    4991     137E          0246                    SUBWF 0x46, W              
    4992     137F          2BAD                    GOTO 0x3AD                 
    4993     1380          128B                    BCF INTCON, 0x5            
    4994     1381          1683                    BSF STATUS, 0x5            
    4995     1382          110C                    BCF PIR1, 0x2              
    4996     1383          108C                    BCF PIR1, 0x1              
    4997     1384          1283                    BCF STATUS, 0x5            
    4998     1385          0849                    MOVF 0x49, W               
    4999     1386          00C2                    MOVWF 0x42                 
    5000     1387          0844                    MOVF 0x44, W               
    5001     1388          0248                    SUBWF 0x48, W              
    5002     1389          2BAD                    GOTO 0x3AD                 
    5003     138A          128B                    BCF INTCON, 0x5            
    5004     138B          1683                    BSF STATUS, 0x5            
    5005     138C          110C                    BCF PIR1, 0x2              
    5006     138D          108C                    BCF PIR1, 0x1              
    5007     138E          1283                    BCF STATUS, 0x5            
    5008     138F          084B                    MOVF 0x4B, W               
    5009     1390          00C2                    MOVWF 0x42                 
    5010     1391          0844                    MOVF 0x44, W               
    5011     1392          024A                    SUBWF 0x4A, W              
    5012     1393          2BAD                    GOTO 0x3AD                 
    5013     1394          128B                    BCF INTCON, 0x5            
    5014     1395          1683                    BSF STATUS, 0x5            
    5015     1396          110C                    BCF PIR1, 0x2              
    5016     1397          108C                    BCF PIR1, 0x1              
    5017     1398          1283                    BCF STATUS, 0x5            
    5018     1399          084D                    MOVF 0x4D, W               
    5019     139A          00C2                    MOVWF 0x42                 
    5020     139B          0844                    MOVF 0x44, W               
    5021     139C          1683                    BSF STATUS, 0x5            
    5022     139D          0229                    SUBWF 0x29, W              
    5023     139E          1283                    BCF STATUS, 0x5            
    5024     139F          2BAD                    GOTO 0x3AD                 
    5025     13A0          128B                    BCF INTCON, 0x5            
    5026     13A1          1683                    BSF STATUS, 0x5            
    5027     13A2          110C                    BCF PIR1, 0x2              
    5028     13A3          108C                    BCF PIR1, 0x1              
    5029     13A4          1283                    BCF STATUS, 0x5            
    5030     13A5          1683                    BSF STATUS, 0x5            
    5031     13A6          0822                    MOVF 0x22, W               
    5032     13A7          1283                    BCF STATUS, 0x5            
    5033     13A8          00C2                    MOVWF 0x42                 
    5034     13A9          0844                    MOVF 0x44, W               
    5035     13AA          1683                    BSF STATUS, 0x5            
    5036     13AB          0221                    SUBWF 0x21, W              
    5037     13AC          1283                    BCF STATUS, 0x5            
    5038     13AD          1C03                    BTFSS STATUS, 0x0          
    5039     13AE          03C2                    DECF 0x42, F               
    5040     13AF          0845                    MOVF 0x45, W               
    5041     13B0          0242                    SUBWF 0x42, W              
    5042     13B1          3980                    ANDLW 0x80                 
    5043     13B2          3A80                    XORLW 0x80                 
    5044     13B3          168B                    BSF INTCON, 0x5            
    5045     13B4          1683                    BSF STATUS, 0x5            
    5046     13B5          150C                    BSF PIR1, 0x2              
    5047     13B6          148C                    BSF PIR1, 0x1              
    5048     13B7          1283                    BCF STATUS, 0x5            
    5049     13B8          0008                    RETURN                     
    5050     13B9          23DD                    CALL 0x3DD                 
    5051     13BA          0841                    MOVF 0x41, W               
    5052     13BB          00C6                    MOVWF 0x46                 
    5053     13BC          0842                    MOVF 0x42, W               
    5054     13BD          00C7                    MOVWF 0x47                 
    5055     13BE          0008                    RETURN                     
    5056     13BF          23DD                    CALL 0x3DD                 
    5057     13C0          0841                    MOVF 0x41, W               
    5058     13C1          00C8                    MOVWF 0x48                 
    5059     13C2          0842                    MOVF 0x42, W               
    5060     13C3          00C9                    MOVWF 0x49                 
    5061     13C4          0008                    RETURN                     
    5062     13C5          23DD                    CALL 0x3DD                 
    5063     13C6          0841                    MOVF 0x41, W               
    5064     13C7          00CA                    MOVWF 0x4A                 
    5065     13C8          0842                    MOVF 0x42, W               
    5066     13C9          00CB                    MOVWF 0x4B                 
    5067     13CA          0008                    RETURN                     
    5068     13CB          23DD                    CALL 0x3DD                 
    5069     13CC          0841                    MOVF 0x41, W               
    5070     13CD          1683                    BSF STATUS, 0x5            
    5071     13CE          00A9                    MOVWF 0x29                 
    5072     13CF          1283                    BCF STATUS, 0x5            
    5073     13D0          0842                    MOVF 0x42, W               
    5074     13D1          00CD                    MOVWF 0x4D                 
    5075     13D2          0008                    RETURN                     
    5076     13D3          23DD                    CALL 0x3DD                 
    5077     13D4          0841                    MOVF 0x41, W               
    5078     13D5          1683                    BSF STATUS, 0x5            
    5079     13D6          00A1                    MOVWF 0x21                 
    5080     13D7          1283                    BCF STATUS, 0x5            
    5081     13D8          0842                    MOVF 0x42, W               
    5082     13D9          1683                    BSF STATUS, 0x5            
    5083     13DA          00A2                    MOVWF 0x22                 
    5084     13DB          1283                    BCF STATUS, 0x5            
    5085     13DC          0008                    RETURN                     
    5086     13DD          128B                    BCF INTCON, 0x5            
    5087     13DE          1683                    BSF STATUS, 0x5            
    5088     13DF          110C                    BCF PIR1, 0x2              
    5089     13E0          108C                    BCF PIR1, 0x1              
    5090     13E1          1283                    BCF STATUS, 0x5            
    5091     13E2          0745                    ADDWF 0x45, W              
    5092     13E3          00C2                    MOVWF 0x42                 
    5093     13E4          0844                    MOVF 0x44, W               
    5094     13E5          07C1                    ADDWF 0x41, F              
    5095     13E6          1803                    BTFSC STATUS, 0x0          
    5096     13E7          0AC2                    INCF 0x42, F               
    5097     13E8          168B                    BSF INTCON, 0x5            
    5098     13E9          1683                    BSF STATUS, 0x5            
    5099     13EA          150C                    BSF PIR1, 0x2              
    5100     13EB          148C                    BSF PIR1, 0x1              
    5101     13EC          1283                    BCF STATUS, 0x5            
    5102     13ED          0008                    RETURN                     
    5103     13EE          1683                    BSF STATUS, 0x5            
    5104     13EF          1C5E                    BTFSS 0x5E, 0x0            
    5105     13F0          2BFE                    GOTO 0x3FE                 
    5106     13F1          1283                    BCF STATUS, 0x5            
    5107     13F2          300F                    MOVLW 0xF                  
    5108     13F3          0550                    ANDWF 0x50, W              
    5109     13F4          1903                    BTFSC STATUS, 0x2          
    5110     13F5          2BFE                    GOTO 0x3FE                 
    5111     13F6          30F0                    MOVLW 0xF0                 
    5112     13F7          0550                    ANDWF 0x50, W              
    5113     13F8          1D03                    BTFSS STATUS, 0x2          
    5114     13F9          2BFC                    GOTO 0x3FC                 
    5115     13FA          30A0                    MOVLW 0xA0                 
    5116     13FB          2BFD                    GOTO 0x3FD                 
    5117     13FC          30B0                    MOVLW 0xB0                 
    5118     13FD          00D0                    MOVWF 0x50                 
    5119     13FE          1283                    BCF STATUS, 0x5            
    5120     13FF          0008                    RETURN                     
    5121     1400          1683                    BSF STATUS, 0x5            
    5122     1401          185E                    BTFSC 0x5E, 0x0            
    5123     1402          2C05                    GOTO 0x405                 
    5124     1403          3E12                    ADDLW 0x12                 
    5125     1404          2C06                    GOTO 0x406                 
    5126     1405          3E14                    ADDLW 0x14                 
    5127     1406          1283                    BCF STATUS, 0x5            
    5128     1407          0008                    RETURN                     
    5129     1408          1683                    BSF STATUS, 0x5            
    5130     1409          300A                    MOVLW 0xA                  
    5131     140A          185E                    BTFSC 0x5E, 0x0            
    5132     140B          2C0D                    GOTO 0x40D                 
    5133     140C          3008                    MOVLW 0x8                  
    5134     140D          1283                    BCF STATUS, 0x5            
    5135     140E          00B6                    MOVWF 0x36                 
    5136     140F          0103                    CLRW                       
    5137     1410          0008                    RETURN                     
    5138     1411          3006                    MOVLW 0x6                  
    5139     1412          00FF                    MOVWF 0x7F                 
    5140     1413          306F                    MOVLW 0x6F                 
    5141     1414          0084                    MOVWF FSR                  
    5142     1415          0103                    CLRW                       
    5143     1416          0A84                    INCF FSR, F                
    5144     1417          0600                    XORWF INDF, W              
    5145     1418          0BFF                    DECFSZ 0x7F, F             
    5146     1419          2C16                    GOTO 0x416                 
    5147     141A          00F9                    MOVWF 0x79                 
    5148     141B          3006                    MOVLW 0x6                  
    5149     141C          00FF                    MOVWF 0x7F                 
    5150     141D          306F                    MOVLW 0x6F                 
    5151     141E          0084                    MOVWF FSR                  
    5152     141F          3008                    MOVLW 0x8                  
    5153     1420          00FC                    MOVWF 0x7C                 
    5154     1421          01FB                    CLRF 0x7B                  
    5155     1422          0A84                    INCF FSR, F                
    5156     1423          0C80                    RRF INDF, F                
    5157     1424          1803                    BTFSC STATUS, 0x0          
    5158     1425          0AFB                    INCF 0x7B, F               
    5159     1426          0BFC                    DECFSZ 0x7C, F             
    5160     1427          2C23                    GOTO 0x423                 
    5161     1428          0CFB                    RRF 0x7B, F                
    5162     1429          0CF8                    RRF 0x78, F                
    5163     142A          0BFF                    DECFSZ 0x7F, F             
    5164     142B          2C1F                    GOTO 0x41F                 
    5165     142C          0CF8                    RRF 0x78, F                
    5166     142D          0CF8                    RRF 0x78, F                
    5167     142E          13F8                    BCF 0x78, 0x7              
    5168     142F          1778                    BSF 0x78, 0x6              
    5169     1430          0008                    RETURN                     
    5170     1431          0876                    MOVF 0x76, W               
    5171     1432          1D03                    BTFSS STATUS, 0x2          
    5172     1433          2C3C                    GOTO 0x43C                 
    5173     1434          3008                    MOVLW 0x8                  
    5174     1435          00F5                    MOVWF 0x75                 
    5175     1436          3003                    MOVLW 0x3                  
    5176     1437          1683                    BSF STATUS, 0x5            
    5177     1438          1AB7                    BTFSC 0x37, 0x5            
    5178     1439          3006                    MOVLW 0x6                  
    5179     143A          1283                    BCF STATUS, 0x5            
    5180     143B          00F6                    MOVWF 0x76                 
    5181     143C          301F                    MOVLW 0x1F                 
    5182     143D          05F5                    ANDWF 0x75, F              
    5183     143E          08F5                    MOVF 0x75, F               
    5184     143F          1903                    BTFSC STATUS, 0x2          
    5185     1440          2C7A                    GOTO 0x47A                 
    5186     1441          0875                    MOVF 0x75, W               
    5187     1442          00A8                    MOVWF 0x28                 
    5188     1443          0876                    MOVF 0x76, W               
    5189     1444          07A8                    ADDWF 0x28, F              
    5190     1445          0828                    MOVF 0x28, W               
    5191     1446          1683                    BSF STATUS, 0x5            
    5192     1447          00D2                    MOVWF 0x52                 
    5193     1448          1283                    BCF STATUS, 0x5            
    5194     1449          300C                    MOVLW 0xC                  
    5195     144A          1683                    BSF STATUS, 0x5            
    5196     144B          1AB7                    BTFSC 0x37, 0x5            
    5197     144C          300F                    MOVLW 0xF                  
    5198     144D          1283                    BCF STATUS, 0x5            
    5199     144E          0228                    SUBWF 0x28, W              
    5200     144F          1803                    BTFSC STATUS, 0x0          
    5201     1450          2C7A                    GOTO 0x47A                 
    5202     1451          3009                    MOVLW 0x9                  
    5203     1452          0275                    SUBWF 0x75, W              
    5204     1453          1803                    BTFSC STATUS, 0x0          
    5205     1454          2C58                    GOTO 0x458                 
    5206     1455          1683                    BSF STATUS, 0x5            
    5207     1456          10D3                    BCF 0x53, 0x1              
    5208     1457          2C5A                    GOTO 0x45A                 
    5209     1458          1683                    BSF STATUS, 0x5            
    5210     1459          14D3                    BSF 0x53, 0x1              
    5211     145A          1283                    BCF STATUS, 0x5            
    5212     145B          0875                    MOVF 0x75, W               
    5213     145C          1683                    BSF STATUS, 0x5            
    5214     145D          00CF                    MOVWF 0x4F                 
    5215     145E          1683                    BSF STATUS, 0x5            
    5216     145F          3001                    MOVLW 0x1                  
    5217     1460          02D2                    SUBWF 0x52, F              
    5218     1461          1EB7                    BTFSS 0x37, 0x5            
    5219     1462          2C65                    GOTO 0x465                 
    5220     1463          3001                    MOVLW 0x1                  
    5221     1464          02D2                    SUBWF 0x52, F              
    5222     1465          1CD3                    BTFSS 0x53, 0x1            
    5223     1466          2C69                    GOTO 0x469                 
    5224     1467          3008                    MOVLW 0x8                  
    5225     1468          02D2                    SUBWF 0x52, F              
    5226     1469          1003                    BCF STATUS, 0x0            
    5227     146A          0DD2                    RLF 0x52, F                
    5228     146B          1003                    BCF STATUS, 0x0            
    5229     146C          0DD2                    RLF 0x52, F                
    5230     146D          18D3                    BTFSC 0x53, 0x1            
    5231     146E          3010                    MOVLW 0x10                 
    5232     146F          1CD3                    BTFSS 0x53, 0x1            
    5233     1470          3008                    MOVLW 0x8                  
    5234     1471          00D1                    MOVWF 0x51                 
    5235     1472          084F                    MOVF 0x4F, W               
    5236     1473          02D1                    SUBWF 0x51, F              
    5237     1474          1283                    BCF STATUS, 0x5            
    5238     1475          13A2                    BCF 0x22, 0x7              
    5239     1476          1283                    BCF STATUS, 0x5            
    5240     1477          118A                    BCF PCLATH, 0x3            
    5241     1478          120A                    BCF PCLATH, 0x4            
    5242     1479          2AD1                    GOTO 0x2D1                 
    5243     147A          17A2                    BSF 0x22, 0x7              
    5244     147B          2C76                    GOTO 0x476                 
    5245     147C          0801                    MOVF TMR0, W               
    5246     147D          00C1                    MOVWF 0x41                 
    5247     147E          13C1                    BCF 0x41, 0x7              
    5248     147F          1341                    BCF 0x41, 0x6              
    5249     1480          12C1                    BCF 0x41, 0x5              
    5250     1481          1641                    BSF 0x41, 0x4              
    5251     1482          0103                    CLRW                       
    5252     1483          118A                    BCF PCLATH, 0x3            
    5253     1484          160A                    BSF PCLATH, 0x4            
    5254     1485          23B9                    CALL 0x3B9                 
    5255     1486          118A                    BCF PCLATH, 0x3            
    5256     1487          160A                    BSF PCLATH, 0x4            
    5257     1488          0008                    RETURN                     
    5258     1489          1283                    BCF STATUS, 0x5            
    5259     148A          1DA4                    BTFSS 0x24, 0x3            
    5260     148B          2C97                    GOTO 0x497                 
    5261     148C          118A                    BCF PCLATH, 0x3            
    5262     148D          120A                    BCF PCLATH, 0x4            
    5263     148E          2241                    CALL 0x241                 
    5264     148F          118A                    BCF PCLATH, 0x3            
    5265     1490          160A                    BSF PCLATH, 0x4            
    5266     1491          1D03                    BTFSS STATUS, 0x2          
    5267     1492          2C97                    GOTO 0x497                 
    5268     1493          1683                    BSF STATUS, 0x5            
    5269     1494          1467                    BSF 0x67, 0x0              
    5270     1495          1283                    BCF STATUS, 0x5            
    5271     1496          3401                    RETLW 0x1                  
    5272     1497          3400                    RETLW 0x0                  
    5273     1498          0008                    RETURN                     
    5274     1499          30FE                    MOVLW 0xFE                 
    5275     149A          0087                    MOVWF PORTC                
    5276     149B          2182                    CALL 0x182                 
    5277     149C          0807                    MOVF PORTC, W              
    5278     149D          3980                    ANDLW 0x80                 
    5279     149E          1903                    BTFSC STATUS, 0x2          
    5280     149F          2CA2                    GOTO 0x4A2                 
    5281     14A0          1224                    BCF 0x24, 0x4              
    5282     14A1          2CA3                    GOTO 0x4A3                 
    5283     14A2          1624                    BSF 0x24, 0x4              
    5284     14A3          30FD                    MOVLW 0xFD                 
    5285     14A4          0087                    MOVWF PORTC                
    5286     14A5          2182                    CALL 0x182                 
    5287     14A6          0807                    MOVF PORTC, W              
    5288     14A7          3980                    ANDLW 0x80                 
    5289     14A8          1903                    BTFSC STATUS, 0x2          
    5290     14A9          2CAD                    GOTO 0x4AD                 
    5291     14AA          1683                    BSF STATUS, 0x5            
    5292     14AB          16DF                    BSF 0x5F, 0x5              
    5293     14AC          2CAF                    GOTO 0x4AF                 
    5294     14AD          1683                    BSF STATUS, 0x5            
    5295     14AE          12DF                    BCF 0x5F, 0x5              
    5296     14AF          1283                    BCF STATUS, 0x5            
    5297     14B0          0008                    RETURN                     
    5298     14B1          234B                    CALL 0x34B                 
    5299     14B2          00A8                    MOVWF 0x28                 
    5300     14B3          30FF                    MOVLW 0xFF                 
    5301     14B4          0628                    XORWF 0x28, W              
    5302     14B5          1903                    BTFSC STATUS, 0x2          
    5303     14B6          2CCE                    GOTO 0x4CE                 
    5304     14B7          3059                    MOVLW 0x59                 
    5305     14B8          0628                    XORWF 0x28, W              
    5306     14B9          1D03                    BTFSS STATUS, 0x2          
    5307     14BA          2CBD                    GOTO 0x4BD                 
    5308     14BB          3000                    MOVLW 0x0                  
    5309     14BC          2CC4                    GOTO 0x4C4                 
    5310     14BD          3012                    MOVLW 0x12                 
    5311     14BE          0628                    XORWF 0x28, W              
    5312     14BF          1D03                    BTFSS STATUS, 0x2          
    5313     14C0          2CC3                    GOTO 0x4C3                 
    5314     14C1          3080                    MOVLW 0x80                 
    5315     14C2          2CC4                    GOTO 0x4C4                 
    5316     14C3          3004                    MOVLW 0x4                  
    5317     14C4          1683                    BSF STATUS, 0x5            
    5318     14C5          00B2                    MOVWF 0x32                 
    5319     14C6          3020                    MOVLW 0x20                 
    5320     14C7          00B3                    MOVWF 0x33                 
    5321     14C8          01B4                    CLRF 0x34                  
    5322     14C9          01B5                    CLRF 0x35                  
    5323     14CA          135E                    BCF 0x5E, 0x6              
    5324     14CB          1283                    BCF STATUS, 0x5            
    5325     14CC          0828                    MOVF 0x28, W               
    5326     14CD          2CD1                    GOTO 0x4D1                 
    5327     14CE          1683                    BSF STATUS, 0x5            
    5328     14CF          0830                    MOVF 0x30, W               
    5329     14D0          1283                    BCF STATUS, 0x5            
    5330     14D1          00C0                    MOVWF 0x40                 
    5331     14D2          0840                    MOVF 0x40, W               
    5332     14D3          3CBC                    SUBLW 0xBC                 
    5333     14D4          1D03                    BTFSS STATUS, 0x2          
    5334     14D5          0008                    RETURN                     
    5335     14D6          1683                    BSF STATUS, 0x5            
    5336     14D7          18DE                    BTFSC 0x5E, 0x1            
    5337     14D8          2CDB                    GOTO 0x4DB                 
    5338     14D9          1D5E                    BTFSS 0x5E, 0x2            
    5339     14DA          2CDD                    GOTO 0x4DD                 
    5340     14DB          1283                    BCF STATUS, 0x5            
    5341     14DC          0008                    RETURN                     
    5342     14DD          1283                    BCF STATUS, 0x5            
    5343     14DE          15A4                    BSF 0x24, 0x3              
    5344     14DF          1326                    BCF 0x26, 0x6              
    5345     14E0          3003                    MOVLW 0x3                  
    5346     14E1          118A                    BCF PCLATH, 0x3            
    5347     14E2          120A                    BCF PCLATH, 0x4            
    5348     14E3          2724                    CALL 0x724                 
    5349     14E4          118A                    BCF PCLATH, 0x3            
    5350     14E5          160A                    BSF PCLATH, 0x4            
    5351     14E6          30E0                    MOVLW 0xE0                 
    5352     14E7          118A                    BCF PCLATH, 0x3            
    5353     14E8          120A                    BCF PCLATH, 0x4            
    5354     14E9          23EA                    CALL 0x3EA                 
    5355     14EA          118A                    BCF PCLATH, 0x3            
    5356     14EB          160A                    BSF PCLATH, 0x4            
    5357     14EC          30E0                    MOVLW 0xE0                 
    5358     14ED          0486                    IORWF PORTB, F             
    5359     14EE          1683                    BSF STATUS, 0x5            
    5360     14EF          1683                    BSF STATUS, 0x5            
    5361     14F0          01D3                    CLRF 0x53                  
    5362     14F1          3008                    MOVLW 0x8                  
    5363     14F2          00CF                    MOVWF 0x4F                 
    5364     14F3          01D1                    CLRF 0x51                  
    5365     14F4          3028                    MOVLW 0x28                 
    5366     14F5          1AB7                    BTFSC 0x37, 0x5            
    5367     14F6          3030                    MOVLW 0x30                 
    5368     14F7          00D2                    MOVWF 0x52                 
    5369     14F8          1283                    BCF STATUS, 0x5            
    5370     14F9          0008                    RETURN                     
    5371     14FA          1683                    BSF STATUS, 0x5            
    5372     14FB          18DE                    BTFSC 0x5E, 0x1            
    5373     14FC          2CFF                    GOTO 0x4FF                 
    5374     14FD          1D5E                    BTFSS 0x5E, 0x2            
    5375     14FE          2D01                    GOTO 0x501                 
    5376     14FF          1283                    BCF STATUS, 0x5            
    5377     1500          0008                    RETURN                     
    5378     1501          234B                    CALL 0x34B                 
    5379     1502          00A8                    MOVWF 0x28                 
    5380     1503          30FF                    MOVLW 0xFF                 
    5381     1504          0628                    XORWF 0x28, W              
    5382     1505          1903                    BTFSC STATUS, 0x2          
    5383     1506          2D0C                    GOTO 0x50C                 
    5384     1507          30BC                    MOVLW 0xBC                 
    5385     1508          0628                    XORWF 0x28, W              
    5386     1509          1D03                    BTFSS STATUS, 0x2          
    5387     150A          2D11                    GOTO 0x511                 
    5388     150B          2D13                    GOTO 0x513                 
    5389     150C          1683                    BSF STATUS, 0x5            
    5390     150D          30BC                    MOVLW 0xBC                 
    5391     150E          0630                    XORWF 0x30, W              
    5392     150F          1903                    BTFSC STATUS, 0x2          
    5393     1510          2D13                    GOTO 0x513                 
    5394     1511          1283                    BCF STATUS, 0x5            
    5395     1512          0008                    RETURN                     
    5396     1513          1283                    BCF STATUS, 0x5            
    5397     1514          15A4                    BSF 0x24, 0x3              
    5398     1515          1326                    BCF 0x26, 0x6              
    5399     1516          3003                    MOVLW 0x3                  
    5400     1517          118A                    BCF PCLATH, 0x3            
    5401     1518          120A                    BCF PCLATH, 0x4            
    5402     1519          2724                    CALL 0x724                 
    5403     151A          118A                    BCF PCLATH, 0x3            
    5404     151B          160A                    BSF PCLATH, 0x4            
    5405     151C          30E0                    MOVLW 0xE0                 
    5406     151D          118A                    BCF PCLATH, 0x3            
    5407     151E          120A                    BCF PCLATH, 0x4            
    5408     151F          23EA                    CALL 0x3EA                 
    5409     1520          118A                    BCF PCLATH, 0x3            
    5410     1521          160A                    BSF PCLATH, 0x4            
    5411     1522          30E0                    MOVLW 0xE0                 
    5412     1523          0486                    IORWF PORTB, F             
    5413     1524          1683                    BSF STATUS, 0x5            
    5414     1525          1683                    BSF STATUS, 0x5            
    5415     1526          01D3                    CLRF 0x53                  
    5416     1527          3008                    MOVLW 0x8                  
    5417     1528          00CF                    MOVWF 0x4F                 
    5418     1529          01D1                    CLRF 0x51                  
    5419     152A          3028                    MOVLW 0x28                 
    5420     152B          1AB7                    BTFSC 0x37, 0x5            
    5421     152C          3030                    MOVLW 0x30                 
    5422     152D          00D2                    MOVWF 0x52                 
    5423     152E          1283                    BCF STATUS, 0x5            
    5424     152F          0008                    RETURN                     
    5425     1530          234B                    CALL 0x34B                 
    5426     1531          00A8                    MOVWF 0x28                 
    5427     1532          30FF                    MOVLW 0xFF                 
    5428     1533          0628                    XORWF 0x28, W              
    5429     1534          1903                    BTFSC STATUS, 0x2          
    5430     1535          2D3B                    GOTO 0x53B                 
    5431     1536          30BC                    MOVLW 0xBC                 
    5432     1537          0628                    XORWF 0x28, W              
    5433     1538          1D03                    BTFSS STATUS, 0x2          
    5434     1539          2D40                    GOTO 0x540                 
    5435     153A          2D42                    GOTO 0x542                 
    5436     153B          1683                    BSF STATUS, 0x5            
    5437     153C          30BC                    MOVLW 0xBC                 
    5438     153D          0630                    XORWF 0x30, W              
    5439     153E          1903                    BTFSC STATUS, 0x2          
    5440     153F          2D42                    GOTO 0x542                 
    5441     1540          1683                    BSF STATUS, 0x5            
    5442     1541          152D                    BSF 0x2D, 0x2              
    5443     1542          1283                    BCF STATUS, 0x5            
    5444     1543          0008                    RETURN                     
    5445     1544          19A4                    BTFSC 0x24, 0x3            
    5446     1545          0008                    RETURN                     
    5447     1546          1E23                    BTFSS 0x23, 0x4            
    5448     1547          0008                    RETURN                     
    5449     1548          118A                    BCF PCLATH, 0x3            
    5450     1549          120A                    BCF PCLATH, 0x4            
    5451     154A          2241                    CALL 0x241                 
    5452     154B          118A                    BCF PCLATH, 0x3            
    5453     154C          160A                    BSF PCLATH, 0x4            
    5454     154D          1D03                    BTFSS STATUS, 0x2          
    5455     154E          0008                    RETURN                     
    5456     154F          2D5C                    GOTO 0x55C                 
    5457     1550          19A4                    BTFSC 0x24, 0x3            
    5458     1551          2D5C                    GOTO 0x55C                 
    5459     1552          118A                    BCF PCLATH, 0x3            
    5460     1553          120A                    BCF PCLATH, 0x4            
    5461     1554          2241                    CALL 0x241                 
    5462     1555          118A                    BCF PCLATH, 0x3            
    5463     1556          160A                    BSF PCLATH, 0x4            
    5464     1557          1903                    BTFSC STATUS, 0x2          
    5465     1558          2D5C                    GOTO 0x55C                 
    5466     1559          1623                    BSF 0x23, 0x4              
    5467     155A          2613                    CALL 0x613                 
    5468     155B          0008                    RETURN                     
    5469     155C          1E23                    BTFSS 0x23, 0x4            
    5470     155D          2D62                    GOTO 0x562                 
    5471     155E          1683                    BSF STATUS, 0x5            
    5472     155F          19DE                    BTFSC 0x5E, 0x3            
    5473     1560          105E                    BCF 0x5E, 0x0              
    5474     1561          1283                    BCF STATUS, 0x5            
    5475     1562          158A                    BSF PCLATH, 0x3            
    5476     1563          120A                    BCF PCLATH, 0x4            
    5477     1564          2800                    GOTO 0x0                   
    5478     1565          118A                    BCF PCLATH, 0x3            
    5479     1566          120A                    BCF PCLATH, 0x4            
    5480     1567          2644                    CALL 0x644                 
    5481     1568          118A                    BCF PCLATH, 0x3            
    5482     1569          160A                    BSF PCLATH, 0x4            
    5483     156A          1683                    BSF STATUS, 0x5            
    5484     156B          1F5F                    BTFSS 0x5F, 0x6            
    5485     156C          2D85                    GOTO 0x585                 
    5486     156D          135F                    BCF 0x5F, 0x6              
    5487     156E          1283                    BCF STATUS, 0x5            
    5488     156F          3006                    MOVLW 0x6                  
    5489     1570          1683                    BSF STATUS, 0x5            
    5490     1571          00A4                    MOVWF 0x24                 
    5491     1572          3001                    MOVLW 0x1                  
    5492     1573          158A                    BSF PCLATH, 0x3            
    5493     1574          120A                    BCF PCLATH, 0x4            
    5494     1575          2686                    CALL 0x686                 
    5495     1576          118A                    BCF PCLATH, 0x3            
    5496     1577          160A                    BSF PCLATH, 0x4            
    5497     1578          300E                    MOVLW 0xE                  
    5498     1579          00C1                    MOVWF 0x41                 
    5499     157A          3000                    MOVLW 0x0                  
    5500     157B          118A                    BCF PCLATH, 0x3            
    5501     157C          160A                    BSF PCLATH, 0x4            
    5502     157D          23B9                    CALL 0x3B9                 
    5503     157E          118A                    BCF PCLATH, 0x3            
    5504     157F          160A                    BSF PCLATH, 0x4            
    5505     1580          118A                    BCF PCLATH, 0x3            
    5506     1581          160A                    BSF PCLATH, 0x4            
    5507     1582          2371                    CALL 0x371                 
    5508     1583          118A                    BCF PCLATH, 0x3            
    5509     1584          160A                    BSF PCLATH, 0x4            
    5510     1585          1283                    BCF STATUS, 0x5            
    5511     1586          1E23                    BTFSS 0x23, 0x4            
    5512     1587          2D8A                    GOTO 0x58A                 
    5513     1588          1223                    BCF 0x23, 0x4              
    5514     1589          2D8B                    GOTO 0x58B                 
    5515     158A          2613                    CALL 0x613                 
    5516     158B          1683                    BSF STATUS, 0x5            
    5517     158C          105E                    BCF 0x5E, 0x0              
    5518     158D          1283                    BCF STATUS, 0x5            
    5519     158E          0008                    RETURN                     
    5520     158F          0000                    NOP                        
    5521     1590          0000                    NOP                        
    5522     1591          0000                    NOP                        
    5523     1592          0000                    NOP                        
    5524     1593          0000                    NOP                        
    5525     1594          0000                    NOP                        
    5526     1595          0000                    NOP                        
    5527     1596          0000                    NOP                        
    5528     1597          0000                    NOP                        
    5529     1598          0000                    NOP                        
    5530     1599          0000                    NOP                        
    5531     159A          0000                    NOP                        
    5532     159B          0000                    NOP                        
    5533     159C          0000                    NOP                        
    5534     159D          0000                    NOP                        
    5535     159E          1283                    BCF STATUS, 0x5            
    5536     159F          1D0C                    BTFSS PIR1, 0x2            
    5537     15A0          2DA7                    GOTO 0x5A7                 
    5538     15A1          3010                    MOVLW 0x10                 
    5539     15A2          0686                    XORWF PORTB, F             
    5540     15A3          018F                    CLRF TMR1H                 
    5541     15A4          018E                    CLRF TMR1                  
    5542     15A5          110C                    BCF PIR1, 0x2              
    5543     15A6          2DAD                    GOTO 0x5AD                 
    5544     15A7          0000                    NOP                        
    5545     15A8          0000                    NOP                        
    5546     15A9          0000                    NOP                        
    5547     15AA          0000                    NOP                        
    5548     15AB          0000                    NOP                        
    5549     15AC          0000                    NOP                        
    5550     15AD          1283                    BCF STATUS, 0x5            
    5551     15AE          0008                    RETURN                     
    5552     15AF          1283                    BCF STATUS, 0x5            
    5553     15B0          1D0C                    BTFSS PIR1, 0x2            
    5554     15B1          0008                    RETURN                     
    5555     15B2          3010                    MOVLW 0x10                 
    5556     15B3          0686                    XORWF PORTB, F             
    5557     15B4          018F                    CLRF TMR1H                 
    5558     15B5          018E                    CLRF TMR1                  
    5559     15B6          110C                    BCF PIR1, 0x2              
    5560     15B7          0008                    RETURN                     
    5561     15B8          118A                    BCF PCLATH, 0x3            
    5562     15B9          120A                    BCF PCLATH, 0x4            
    5563     15BA          2719                    CALL 0x719                 
    5564     15BB          118A                    BCF PCLATH, 0x3            
    5565     15BC          160A                    BSF PCLATH, 0x4            
    5566     15BD          1828                    BTFSC 0x28, 0x0            
    5567     15BE          0008                    RETURN                     
    5568     15BF          1CA8                    BTFSS 0x28, 0x1            
    5569     15C0          2DC4                    GOTO 0x5C4                 
    5570     15C1          118A                    BCF PCLATH, 0x3            
    5571     15C2          160A                    BSF PCLATH, 0x4            
    5572     15C3          2DF3                    GOTO 0x5F3                 
    5573     15C4          1683                    BSF STATUS, 0x5            
    5574     15C5          1CDF                    BTFSS 0x5F, 0x1            
    5575     15C6          2DC9                    GOTO 0x5C9                 
    5576     15C7          1283                    BCF STATUS, 0x5            
    5577     15C8          2DD2                    GOTO 0x5D2                 
    5578     15C9          1283                    BCF STATUS, 0x5            
    5579     15CA          118A                    BCF PCLATH, 0x3            
    5580     15CB          120A                    BCF PCLATH, 0x4            
    5581     15CC          225B                    CALL 0x25B                 
    5582     15CD          118A                    BCF PCLATH, 0x3            
    5583     15CE          160A                    BSF PCLATH, 0x4            
    5584     15CF          1903                    BTFSC STATUS, 0x2          
    5585     15D0          1022                    BCF 0x22, 0x0              
    5586     15D1          1D03                    BTFSS STATUS, 0x2          
    5587     15D2          1422                    BSF 0x22, 0x0              
    5588     15D3          1683                    BSF STATUS, 0x5            
    5589     15D4          1CDF                    BTFSS 0x5F, 0x1            
    5590     15D5          2DD8                    GOTO 0x5D8                 
    5591     15D6          1283                    BCF STATUS, 0x5            
    5592     15D7          2DE1                    GOTO 0x5E1                 
    5593     15D8          1283                    BCF STATUS, 0x5            
    5594     15D9          118A                    BCF PCLATH, 0x3            
    5595     15DA          120A                    BCF PCLATH, 0x4            
    5596     15DB          224E                    CALL 0x24E                 
    5597     15DC          118A                    BCF PCLATH, 0x3            
    5598     15DD          160A                    BSF PCLATH, 0x4            
    5599     15DE          1903                    BTFSC STATUS, 0x2          
    5600     15DF          10A2                    BCF 0x22, 0x1              
    5601     15E0          1D03                    BTFSS STATUS, 0x2          
    5602     15E1          14A2                    BSF 0x22, 0x1              
    5603     15E2          0008                    RETURN                     
    5604     15E3          14A2                    BSF 0x22, 0x1              
    5605     15E4          118A                    BCF PCLATH, 0x3            
    5606     15E5          160A                    BSF PCLATH, 0x4            
    5607     15E6          2380                    CALL 0x380                 
    5608     15E7          118A                    BCF PCLATH, 0x3            
    5609     15E8          160A                    BSF PCLATH, 0x4            
    5610     15E9          1D03                    BTFSS STATUS, 0x2          
    5611     15EA          0008                    RETURN                     
    5612     15EB          1326                    BCF 0x26, 0x6              
    5613     15EC          13A6                    BCF 0x26, 0x7              
    5614     15ED          118A                    BCF PCLATH, 0x3            
    5615     15EE          160A                    BSF PCLATH, 0x4            
    5616     15EF          2530                    CALL 0x530                 
    5617     15F0          118A                    BCF PCLATH, 0x3            
    5618     15F1          160A                    BSF PCLATH, 0x4            
    5619     15F2          0008                    RETURN                     
    5620     15F3          118A                    BCF PCLATH, 0x3            
    5621     15F4          120A                    BCF PCLATH, 0x4            
    5622     15F5          224E                    CALL 0x24E                 
    5623     15F6          118A                    BCF PCLATH, 0x3            
    5624     15F7          160A                    BSF PCLATH, 0x4            
    5625     15F8          1D03                    BTFSS STATUS, 0x2          
    5626     15F9          2DFD                    GOTO 0x5FD                 
    5627     15FA          10A2                    BCF 0x22, 0x1              
    5628     15FB          1422                    BSF 0x22, 0x0              
    5629     15FC          0008                    RETURN                     
    5630     15FD          14A2                    BSF 0x22, 0x1              
    5631     15FE          1022                    BCF 0x22, 0x0              
    5632     15FF          0008                    RETURN                     
    5633     1600          118A                    BCF PCLATH, 0x3            
    5634     1601          160A                    BSF PCLATH, 0x4            
    5635     1602          23A0                    CALL 0x3A0                 
    5636     1603          118A                    BCF PCLATH, 0x3            
    5637     1604          160A                    BSF PCLATH, 0x4            
    5638     1605          1D03                    BTFSS STATUS, 0x2          
    5639     1606          0008                    RETURN                     
    5640     1607          19A4                    BTFSC 0x24, 0x3            
    5641     1608          0008                    RETURN                     
    5642     1609          1622                    BSF 0x22, 0x4              
    5643     160A          3059                    MOVLW 0x59                 
    5644     160B          00C1                    MOVWF 0x41                 
    5645     160C          3000                    MOVLW 0x0                  
    5646     160D          118A                    BCF PCLATH, 0x3            
    5647     160E          160A                    BSF PCLATH, 0x4            
    5648     160F          23D3                    CALL 0x3D3                 
    5649     1610          118A                    BCF PCLATH, 0x3            
    5650     1611          160A                    BSF PCLATH, 0x4            
    5651     1612          0008                    RETURN                     
    5652     1613          1683                    BSF STATUS, 0x5            
    5653     1614          1C5E                    BTFSS 0x5E, 0x0            
    5654     1615          2E20                    GOTO 0x620                 
    5655     1616          1283                    BCF STATUS, 0x5            
    5656     1617          19A2                    BTFSC 0x22, 0x3            
    5657     1618          0008                    RETURN                     
    5658     1619          1683                    BSF STATUS, 0x5            
    5659     161A          1F5E                    BTFSS 0x5E, 0x6            
    5660     161B          2E1E                    GOTO 0x61E                 
    5661     161C          1283                    BCF STATUS, 0x5            
    5662     161D          15A2                    BSF 0x22, 0x3              
    5663     161E          1283                    BCF STATUS, 0x5            
    5664     161F          0008                    RETURN                     
    5665     1620          1283                    BCF STATUS, 0x5            
    5666     1621          19A4                    BTFSC 0x24, 0x3            
    5667     1622          0008                    RETURN                     
    5668     1623          1123                    BCF 0x23, 0x2              
    5669     1624          118A                    BCF PCLATH, 0x3            
    5670     1625          120A                    BCF PCLATH, 0x4            
    5671     1626          2719                    CALL 0x719                 
    5672     1627          118A                    BCF PCLATH, 0x3            
    5673     1628          160A                    BSF PCLATH, 0x4            
    5674     1629          1828                    BTFSC 0x28, 0x0            
    5675     162A          2660                    CALL 0x660                 
    5676     162B          118A                    BCF PCLATH, 0x3            
    5677     162C          120A                    BCF PCLATH, 0x4            
    5678     162D          2716                    CALL 0x716                 
    5679     162E          118A                    BCF PCLATH, 0x3            
    5680     162F          160A                    BSF PCLATH, 0x4            
    5681     1630          1AA8                    BTFSC 0x28, 0x5            
    5682     1631          0008                    RETURN                     
    5683     1632          158A                    BSF PCLATH, 0x3            
    5684     1633          120A                    BCF PCLATH, 0x4            
    5685     1634          2665                    CALL 0x665                 
    5686     1635          118A                    BCF PCLATH, 0x3            
    5687     1636          160A                    BSF PCLATH, 0x4            
    5688     1637          3059                    MOVLW 0x59                 
    5689     1638          00C1                    MOVWF 0x41                 
    5690     1639          3000                    MOVLW 0x0                  
    5691     163A          118A                    BCF PCLATH, 0x3            
    5692     163B          160A                    BSF PCLATH, 0x4            
    5693     163C          23B9                    CALL 0x3B9                 
    5694     163D          118A                    BCF PCLATH, 0x3            
    5695     163E          160A                    BSF PCLATH, 0x4            
    5696     163F          118A                    BCF PCLATH, 0x3            
    5697     1640          160A                    BSF PCLATH, 0x4            
    5698     1641          2371                    CALL 0x371                 
    5699     1642          118A                    BCF PCLATH, 0x3            
    5700     1643          160A                    BSF PCLATH, 0x4            
    5701     1644          0008                    RETURN                     
    5702     1645          1123                    BCF 0x23, 0x2              
    5703     1646          1683                    BSF STATUS, 0x5            
    5704     1647          1BDE                    BTFSC 0x5E, 0x7            
    5705     1648          2E4B                    GOTO 0x64B                 
    5706     1649          1283                    BCF STATUS, 0x5            
    5707     164A          12A2                    BCF 0x22, 0x5              
    5708     164B          1283                    BCF STATUS, 0x5            
    5709     164C          118A                    BCF PCLATH, 0x3            
    5710     164D          120A                    BCF PCLATH, 0x4            
    5711     164E          2719                    CALL 0x719                 
    5712     164F          118A                    BCF PCLATH, 0x3            
    5713     1650          160A                    BSF PCLATH, 0x4            
    5714     1651          1C28                    BTFSS 0x28, 0x0            
    5715     1652          2E59                    GOTO 0x659                 
    5716     1653          1683                    BSF STATUS, 0x5            
    5717     1654          18DF                    BTFSC 0x5F, 0x1            
    5718     1655          2E59                    GOTO 0x659                 
    5719     1656          1283                    BCF STATUS, 0x5            
    5720     1657          1422                    BSF 0x22, 0x0              
    5721     1658          10A2                    BCF 0x22, 0x1              
    5722     1659          1283                    BCF STATUS, 0x5            
    5723     165A          118A                    BCF PCLATH, 0x3            
    5724     165B          160A                    BSF PCLATH, 0x4            
    5725     165C          2600                    CALL 0x600                 
    5726     165D          118A                    BCF PCLATH, 0x3            
    5727     165E          160A                    BSF PCLATH, 0x4            
    5728     165F          0008                    RETURN                     
    5729     1660          14A2                    BSF 0x22, 0x1              
    5730     1661          1683                    BSF STATUS, 0x5            
    5731     1662          1BDE                    BTFSC 0x5E, 0x7            
    5732     1663          2E66                    GOTO 0x666                 
    5733     1664          1283                    BCF STATUS, 0x5            
    5734     1665          12A2                    BCF 0x22, 0x5              
    5735     1666          1283                    BCF STATUS, 0x5            
    5736     1667          2E6E                    GOTO 0x66E                 
    5737     1668          10A2                    BCF 0x22, 0x1              
    5738     1669          158A                    BSF PCLATH, 0x3            
    5739     166A          120A                    BCF PCLATH, 0x4            
    5740     166B          26A3                    CALL 0x6A3                 
    5741     166C          118A                    BCF PCLATH, 0x3            
    5742     166D          160A                    BSF PCLATH, 0x4            
    5743     166E          1022                    BCF 0x22, 0x0              
    5744     166F          1683                    BSF STATUS, 0x5            
    5745     1670          1BDE                    BTFSC 0x5E, 0x7            
    5746     1671          2E74                    GOTO 0x674                 
    5747     1672          1283                    BCF STATUS, 0x5            
    5748     1673          1122                    BCF 0x22, 0x2              
    5749     1674          1283                    BCF STATUS, 0x5            
    5750     1675          0008                    RETURN                     
    5751     1676          19A4                    BTFSC 0x24, 0x3            
    5752     1677          0008                    RETURN                     
    5753     1678          1683                    BSF STATUS, 0x5            
    5754     1679          18DE                    BTFSC 0x5E, 0x1            
    5755     167A          2E7D                    GOTO 0x67D                 
    5756     167B          1D5E                    BTFSS 0x5E, 0x2            
    5757     167C          2E7F                    GOTO 0x67F                 
    5758     167D          1283                    BCF STATUS, 0x5            
    5759     167E          0008                    RETURN                     
    5760     167F          118A                    BCF PCLATH, 0x3            
    5761     1680          120A                    BCF PCLATH, 0x4            
    5762     1681          2716                    CALL 0x716                 
    5763     1682          118A                    BCF PCLATH, 0x3            
    5764     1683          160A                    BSF PCLATH, 0x4            
    5765     1684          1A28                    BTFSC 0x28, 0x4            
    5766     1685          2E9A                    GOTO 0x69A                 
    5767     1686          118A                    BCF PCLATH, 0x3            
    5768     1687          120A                    BCF PCLATH, 0x4            
    5769     1688          2257                    CALL 0x257                 
    5770     1689          118A                    BCF PCLATH, 0x3            
    5771     168A          160A                    BSF PCLATH, 0x4            
    5772     168B          1903                    BTFSC STATUS, 0x2          
    5773     168C          2E8F                    GOTO 0x68F                 
    5774     168D          15A2                    BSF 0x22, 0x3              
    5775     168E          2E98                    GOTO 0x698                 
    5776     168F          1683                    BSF STATUS, 0x5            
    5777     1690          1B5E                    BTFSC 0x5E, 0x6            
    5778     1691          2E98                    GOTO 0x698                 
    5779     1692          1283                    BCF STATUS, 0x5            
    5780     1693          158A                    BSF PCLATH, 0x3            
    5781     1694          120A                    BCF PCLATH, 0x4            
    5782     1695          26A3                    CALL 0x6A3                 
    5783     1696          118A                    BCF PCLATH, 0x3            
    5784     1697          160A                    BSF PCLATH, 0x4            
    5785     1698          1283                    BCF STATUS, 0x5            
    5786     1699          0008                    RETURN                     
    5787     169A          118A                    BCF PCLATH, 0x3            
    5788     169B          120A                    BCF PCLATH, 0x4            
    5789     169C          2257                    CALL 0x257                 
    5790     169D          118A                    BCF PCLATH, 0x3            
    5791     169E          160A                    BSF PCLATH, 0x4            
    5792     169F          1D03                    BTFSS STATUS, 0x2          
    5793     16A0          2EA3                    GOTO 0x6A3                 
    5794     16A1          1723                    BSF 0x23, 0x6              
    5795     16A2          0008                    RETURN                     
    5796     16A3          1F23                    BTFSS 0x23, 0x6            
    5797     16A4          0008                    RETURN                     
    5798     16A5          1323                    BCF 0x23, 0x6              
    5799     16A6          3006                    MOVLW 0x6                  
    5800     16A7          158A                    BSF PCLATH, 0x3            
    5801     16A8          120A                    BCF PCLATH, 0x4            
    5802     16A9          2677                    CALL 0x677                 
    5803     16AA          118A                    BCF PCLATH, 0x3            
    5804     16AB          160A                    BSF PCLATH, 0x4            
    5805     16AC          0008                    RETURN                     
    5806     16AD          19A4                    BTFSC 0x24, 0x3            
    5807     16AE          0008                    RETURN                     
    5808     16AF          1683                    BSF STATUS, 0x5            
    5809     16B0          18DE                    BTFSC 0x5E, 0x1            
    5810     16B1          2EB4                    GOTO 0x6B4                 
    5811     16B2          1D5E                    BTFSS 0x5E, 0x2            
    5812     16B3          2EB6                    GOTO 0x6B6                 
    5813     16B4          1283                    BCF STATUS, 0x5            
    5814     16B5          0008                    RETURN                     
    5815     16B6          118A                    BCF PCLATH, 0x3            
    5816     16B7          120A                    BCF PCLATH, 0x4            
    5817     16B8          2716                    CALL 0x716                 
    5818     16B9          118A                    BCF PCLATH, 0x3            
    5819     16BA          160A                    BSF PCLATH, 0x4            
    5820     16BB          1A28                    BTFSC 0x28, 0x4            
    5821     16BC          0008                    RETURN                     
    5822     16BD          118A                    BCF PCLATH, 0x3            
    5823     16BE          120A                    BCF PCLATH, 0x4            
    5824     16BF          2257                    CALL 0x257                 
    5825     16C0          118A                    BCF PCLATH, 0x3            
    5826     16C1          160A                    BSF PCLATH, 0x4            
    5827     16C2          1903                    BTFSC STATUS, 0x2          
    5828     16C3          0008                    RETURN                     
    5829     16C4          1683                    BSF STATUS, 0x5            
    5830     16C5          175F                    BSF 0x5F, 0x6              
    5831     16C6          1283                    BCF STATUS, 0x5            
    5832     16C7          0008                    RETURN                     
    5833     16C8          3FFF                    ADDLW 0xFF                 
    5834     16C9          3FFF                    ADDLW 0xFF                 
    5835     16CA          3FFF                    ADDLW 0xFF                 
    5836     16CB          3FFF                    ADDLW 0xFF                 
    5837     16CC          3FFF                    ADDLW 0xFF                 
    5838     16CD          3FFF                    ADDLW 0xFF                 
    5839     16CE          3FFF                    ADDLW 0xFF                 
    5840     16CF          3FFF                    ADDLW 0xFF                 
    5841     16D0          3FFF                    ADDLW 0xFF                 
    5842     16D1          3FFF                    ADDLW 0xFF                 
    5843     16D2          3FFF                    ADDLW 0xFF                 
    5844     16D3          3FFF                    ADDLW 0xFF                 
    5845     16D4          3FFF                    ADDLW 0xFF                 
    5846     16D5          3FFF                    ADDLW 0xFF                 
    5847     16D6          3FFF                    ADDLW 0xFF                 
    5848     16D7          3FFF                    ADDLW 0xFF                 
    5849     16D8          3FFF                    ADDLW 0xFF                 
    5850     16D9          3FFF                    ADDLW 0xFF                 
    5851     16DA          3FFF                    ADDLW 0xFF                 
    5852     16DB          3FFF                    ADDLW 0xFF                 
    5853     16DC          3FFF                    ADDLW 0xFF                 
    5854     16DD          3FFF                    ADDLW 0xFF                 
    5855     16DE          3FFF                    ADDLW 0xFF                 
    5856     16DF          3FFF                    ADDLW 0xFF                 
    5857     16E0          3FFF                    ADDLW 0xFF                 
    5858     16E1          3FFF                    ADDLW 0xFF                 
    5859     16E2          3FFF                    ADDLW 0xFF                 
    5860     16E3          3FFF                    ADDLW 0xFF                 
    5861     16E4          3FFF                    ADDLW 0xFF                 
    5862     16E5          3FFF                    ADDLW 0xFF                 
    5863     16E6          3FFF                    ADDLW 0xFF                 
    5864     16E7          3FFF                    ADDLW 0xFF                 
    5865     16E8          3FFF                    ADDLW 0xFF                 
    5866     16E9          3FFF                    ADDLW 0xFF                 
    5867     16EA          3FFF                    ADDLW 0xFF                 
    5868     16EB          3FFF                    ADDLW 0xFF                 
    5869     16EC          3FFF                    ADDLW 0xFF                 
    5870     16ED          3FFF                    ADDLW 0xFF                 
    5871     16EE          3FFF                    ADDLW 0xFF                 
    5872     16EF          3FFF                    ADDLW 0xFF                 
    5873     16F0          3FFF                    ADDLW 0xFF                 
    5874     16F1          3FFF                    ADDLW 0xFF                 
    5875     16F2          3FFF                    ADDLW 0xFF                 
    5876     16F3          3FFF                    ADDLW 0xFF                 
    5877     16F4          3FFF                    ADDLW 0xFF                 
    5878     16F5          3FFF                    ADDLW 0xFF                 
    5879     16F6          3FFF                    ADDLW 0xFF                 
    5880     16F7          3FFF                    ADDLW 0xFF                 
    5881     16F8          3FFF                    ADDLW 0xFF                 
    5882     16F9          3FFF                    ADDLW 0xFF                 
    5883     16FA          3FFF                    ADDLW 0xFF                 
    5884     16FB          3FFF                    ADDLW 0xFF                 
    5885     16FC          3FFF                    ADDLW 0xFF                 
    5886     16FD          3FFF                    ADDLW 0xFF                 
    5887     16FE          3FFF                    ADDLW 0xFF                 
    5888     16FF          3FFF                    ADDLW 0xFF                 
    5889     1700          3FFF                    ADDLW 0xFF                 
    5890     1701          3FFF                    ADDLW 0xFF                 
    5891     1702          3FFF                    ADDLW 0xFF                 
    5892     1703          3FFF                    ADDLW 0xFF                 
    5893     1704          3FFF                    ADDLW 0xFF                 
    5894     1705          3FFF                    ADDLW 0xFF                 
    5895     1706          3FFF                    ADDLW 0xFF                 
    5896     1707          3FFF                    ADDLW 0xFF                 
    5897     1708          3FFF                    ADDLW 0xFF                 
    5898     1709          3FFF                    ADDLW 0xFF                 
    5899     170A          3FFF                    ADDLW 0xFF                 
    5900     170B          3FFF                    ADDLW 0xFF                 
    5901     170C          3FFF                    ADDLW 0xFF                 
    5902     170D          3FFF                    ADDLW 0xFF                 
    5903     170E          3FFF                    ADDLW 0xFF                 
    5904     170F          3FFF                    ADDLW 0xFF                 
    5905     1710          3FFF                    ADDLW 0xFF                 
    5906     1711          3FFF                    ADDLW 0xFF                 
    5907     1712          3FFF                    ADDLW 0xFF                 
    5908     1713          3FFF                    ADDLW 0xFF                 
    5909     1714          3FFF                    ADDLW 0xFF                 
    5910     1715          3FFF                    ADDLW 0xFF                 
    5911     1716          3FFF                    ADDLW 0xFF                 
    5912     1717          3FFF                    ADDLW 0xFF                 
    5913     1718          3FFF                    ADDLW 0xFF                 
    5914     1719          3FFF                    ADDLW 0xFF                 
    5915     171A          3FFF                    ADDLW 0xFF                 
    5916     171B          3FFF                    ADDLW 0xFF                 
    5917     171C          3FFF                    ADDLW 0xFF                 
    5918     171D          3FFF                    ADDLW 0xFF                 
    5919     171E          3FFF                    ADDLW 0xFF                 
    5920     171F          3FFF                    ADDLW 0xFF                 
    5921     1720          3FFF                    ADDLW 0xFF                 
    5922     1721          3FFF                    ADDLW 0xFF                 
    5923     1722          3FFF                    ADDLW 0xFF                 
    5924     1723          3FFF                    ADDLW 0xFF                 
    5925     1724          3FFF                    ADDLW 0xFF                 
    5926     1725          3FFF                    ADDLW 0xFF                 
    5927     1726          3FFF                    ADDLW 0xFF                 
    5928     1727          3FFF                    ADDLW 0xFF                 
    5929     1728          3FFF                    ADDLW 0xFF                 
    5930     1729          3FFF                    ADDLW 0xFF                 
    5931     172A          3FFF                    ADDLW 0xFF                 
    5932     172B          3FFF                    ADDLW 0xFF                 
    5933     172C          3FFF                    ADDLW 0xFF                 
    5934     172D          3FFF                    ADDLW 0xFF                 
    5935     172E          3FFF                    ADDLW 0xFF                 
    5936     172F          3FFF                    ADDLW 0xFF                 
    5937     1730          3FFF                    ADDLW 0xFF                 
    5938     1731          3FFF                    ADDLW 0xFF                 
    5939     1732          3FFF                    ADDLW 0xFF                 
    5940     1733          3FFF                    ADDLW 0xFF                 
    5941     1734          3FFF                    ADDLW 0xFF                 
    5942     1735          3FFF                    ADDLW 0xFF                 
    5943     1736          3FFF                    ADDLW 0xFF                 
    5944     1737          3FFF                    ADDLW 0xFF                 
    5945     1738          3FFF                    ADDLW 0xFF                 
    5946     1739          3FFF                    ADDLW 0xFF                 
    5947     173A          3FFF                    ADDLW 0xFF                 
    5948     173B          3FFF                    ADDLW 0xFF                 
    5949     173C          3FFF                    ADDLW 0xFF                 
    5950     173D          3FFF                    ADDLW 0xFF                 
    5951     173E          3FFF                    ADDLW 0xFF                 
    5952     173F          3FFF                    ADDLW 0xFF                 
    5953     1740          3FFF                    ADDLW 0xFF                 
    5954     1741          3FFF                    ADDLW 0xFF                 
    5955     1742          3FFF                    ADDLW 0xFF                 
    5956     1743          3FFF                    ADDLW 0xFF                 
    5957     1744          3FFF                    ADDLW 0xFF                 
    5958     1745          3FFF                    ADDLW 0xFF                 
    5959     1746          3FFF                    ADDLW 0xFF                 
    5960     1747          3FFF                    ADDLW 0xFF                 
    5961     1748          3FFF                    ADDLW 0xFF                 
    5962     1749          3FFF                    ADDLW 0xFF                 
    5963     174A          3FFF                    ADDLW 0xFF                 
    5964     174B          3FFF                    ADDLW 0xFF                 
    5965     174C          3FFF                    ADDLW 0xFF                 
    5966     174D          3FFF                    ADDLW 0xFF                 
    5967     174E          3FFF                    ADDLW 0xFF                 
    5968     174F          3FFF                    ADDLW 0xFF                 
    5969     1750          3FFF                    ADDLW 0xFF                 
    5970     1751          3FFF                    ADDLW 0xFF                 
    5971     1752          3FFF                    ADDLW 0xFF                 
    5972     1753          3FFF                    ADDLW 0xFF                 
    5973     1754          3FFF                    ADDLW 0xFF                 
    5974     1755          3FFF                    ADDLW 0xFF                 
    5975     1756          3FFF                    ADDLW 0xFF                 
    5976     1757          3FFF                    ADDLW 0xFF                 
    5977     1758          3FFF                    ADDLW 0xFF                 
    5978     1759          3FFF                    ADDLW 0xFF                 
    5979     175A          3FFF                    ADDLW 0xFF                 
    5980     175B          3FFF                    ADDLW 0xFF                 
    5981     175C          3FFF                    ADDLW 0xFF                 
    5982     175D          3FFF                    ADDLW 0xFF                 
    5983     175E          3FFF                    ADDLW 0xFF                 
    5984     175F          3FFF                    ADDLW 0xFF                 
    5985     1760          3FFF                    ADDLW 0xFF                 
    5986     1761          3FFF                    ADDLW 0xFF                 
    5987     1762          3FFF                    ADDLW 0xFF                 
    5988     1763          3FFF                    ADDLW 0xFF                 
    5989     1764          3FFF                    ADDLW 0xFF                 
    5990     1765          3FFF                    ADDLW 0xFF                 
    5991     1766          3FFF                    ADDLW 0xFF                 
    5992     1767          3FFF                    ADDLW 0xFF                 
    5993     1768          3FFF                    ADDLW 0xFF                 
    5994     1769          3FFF                    ADDLW 0xFF                 
    5995     176A          3FFF                    ADDLW 0xFF                 
    5996     176B          3FFF                    ADDLW 0xFF                 
    5997     176C          3FFF                    ADDLW 0xFF                 
    5998     176D          3FFF                    ADDLW 0xFF                 
    5999     176E          3FFF                    ADDLW 0xFF                 
    6000     176F          3FFF                    ADDLW 0xFF                 
    6001     1770          3FFF                    ADDLW 0xFF                 
    6002     1771          3FFF                    ADDLW 0xFF                 
    6003     1772          3FFF                    ADDLW 0xFF                 
    6004     1773          3FFF                    ADDLW 0xFF                 
    6005     1774          3FFF                    ADDLW 0xFF                 
    6006     1775          3FFF                    ADDLW 0xFF                 
    6007     1776          3FFF                    ADDLW 0xFF                 
    6008     1777          3FFF                    ADDLW 0xFF                 
    6009     1778          3FFF                    ADDLW 0xFF                 
    6010     1779          3FFF                    ADDLW 0xFF                 
    6011     177A          3FFF                    ADDLW 0xFF                 
    6012     177B          3FFF                    ADDLW 0xFF                 
    6013     177C          3FFF                    ADDLW 0xFF                 
    6014     177D          3FFF                    ADDLW 0xFF                 
    6015     177E          3FFF                    ADDLW 0xFF                 
    6016     177F          3FFF                    ADDLW 0xFF                 
    6017     1780          3FFF                    ADDLW 0xFF                 
    6018     1781          3FFF                    ADDLW 0xFF                 
    6019     1782          3FFF                    ADDLW 0xFF                 
    6020     1783          3FFF                    ADDLW 0xFF                 
    6021     1784          3FFF                    ADDLW 0xFF                 
    6022     1785          3FFF                    ADDLW 0xFF                 
    6023     1786          3FFF                    ADDLW 0xFF                 
    6024     1787          3FFF                    ADDLW 0xFF                 
    6025     1788          3FFF                    ADDLW 0xFF                 
    6026     1789          3FFF                    ADDLW 0xFF                 
    6027     178A          3FFF                    ADDLW 0xFF                 
    6028     178B          3FFF                    ADDLW 0xFF                 
    6029     178C          3FFF                    ADDLW 0xFF                 
    6030     178D          3FFF                    ADDLW 0xFF                 
    6031     178E          3FFF                    ADDLW 0xFF                 
    6032     178F          3FFF                    ADDLW 0xFF                 
    6033     1790          3FFF                    ADDLW 0xFF                 
    6034     1791          3FFF                    ADDLW 0xFF                 
    6035     1792          3FFF                    ADDLW 0xFF                 
    6036     1793          3FFF                    ADDLW 0xFF                 
    6037     1794          3FFF                    ADDLW 0xFF                 
    6038     1795          3FFF                    ADDLW 0xFF                 
    6039     1796          3FFF                    ADDLW 0xFF                 
    6040     1797          3FFF                    ADDLW 0xFF                 
    6041     1798          3FFF                    ADDLW 0xFF                 
    6042     1799          3FFF                    ADDLW 0xFF                 
    6043     179A          3FFF                    ADDLW 0xFF                 
    6044     179B          3FFF                    ADDLW 0xFF                 
    6045     179C          3FFF                    ADDLW 0xFF                 
    6046     179D          3FFF                    ADDLW 0xFF                 
    6047     179E          3FFF                    ADDLW 0xFF                 
    6048     179F          3FFF                    ADDLW 0xFF                 
    6049     17A0          3FFF                    ADDLW 0xFF                 
    6050     17A1          3FFF                    ADDLW 0xFF                 
    6051     17A2          3FFF                    ADDLW 0xFF                 
    6052     17A3          3FFF                    ADDLW 0xFF                 
    6053     17A4          3FFF                    ADDLW 0xFF                 
    6054     17A5          3FFF                    ADDLW 0xFF                 
    6055     17A6          3FFF                    ADDLW 0xFF                 
    6056     17A7          3FFF                    ADDLW 0xFF                 
    6057     17A8          3FFF                    ADDLW 0xFF                 
    6058     17A9          3FFF                    ADDLW 0xFF                 
    6059     17AA          3FFF                    ADDLW 0xFF                 
    6060     17AB          3FFF                    ADDLW 0xFF                 
    6061     17AC          3FFF                    ADDLW 0xFF                 
    6062     17AD          3FFF                    ADDLW 0xFF                 
    6063     17AE          3FFF                    ADDLW 0xFF                 
    6064     17AF          3FFF                    ADDLW 0xFF                 
    6065     17B0          3FFF                    ADDLW 0xFF                 
    6066     17B1          3FFF                    ADDLW 0xFF                 
    6067     17B2          3FFF                    ADDLW 0xFF                 
    6068     17B3          3FFF                    ADDLW 0xFF                 
    6069     17B4          3FFF                    ADDLW 0xFF                 
    6070     17B5          3FFF                    ADDLW 0xFF                 
    6071     17B6          3FFF                    ADDLW 0xFF                 
    6072     17B7          3FFF                    ADDLW 0xFF                 
    6073     17B8          3FFF                    ADDLW 0xFF                 
    6074     17B9          3FFF                    ADDLW 0xFF                 
    6075     17BA          3FFF                    ADDLW 0xFF                 
    6076     17BB          3FFF                    ADDLW 0xFF                 
    6077     17BC          3FFF                    ADDLW 0xFF                 
    6078     17BD          3FFF                    ADDLW 0xFF                 
    6079     17BE          3FFF                    ADDLW 0xFF                 
    6080     17BF          3FFF                    ADDLW 0xFF                 
    6081     17C0          3FFF                    ADDLW 0xFF                 
    6082     17C1          3FFF                    ADDLW 0xFF                 
    6083     17C2          3FFF                    ADDLW 0xFF                 
    6084     17C3          3FFF                    ADDLW 0xFF                 
    6085     17C4          3FFF                    ADDLW 0xFF                 
    6086     17C5          3FFF                    ADDLW 0xFF                 
    6087     17C6          3FFF                    ADDLW 0xFF                 
    6088     17C7          3FFF                    ADDLW 0xFF                 
    6089     17C8          3FFF                    ADDLW 0xFF                 
    6090     17C9          3FFF                    ADDLW 0xFF                 
    6091     17CA          3FFF                    ADDLW 0xFF                 
    6092     17CB          3FFF                    ADDLW 0xFF                 
    6093     17CC          3FFF                    ADDLW 0xFF                 
    6094     17CD          3FFF                    ADDLW 0xFF                 
    6095     17CE          3FFF                    ADDLW 0xFF                 
    6096     17CF          3FFF                    ADDLW 0xFF                 
    6097     17D0          3FFF                    ADDLW 0xFF                 
    6098     17D1          3FFF                    ADDLW 0xFF                 
    6099     17D2          3FFF                    ADDLW 0xFF                 
    6100     17D3          3FFF                    ADDLW 0xFF                 
    6101     17D4          3FFF                    ADDLW 0xFF                 
    6102     17D5          3FFF                    ADDLW 0xFF                 
    6103     17D6          3FFF                    ADDLW 0xFF                 
    6104     17D7          3FFF                    ADDLW 0xFF                 
    6105     17D8          3FFF                    ADDLW 0xFF                 
    6106     17D9          3FFF                    ADDLW 0xFF                 
    6107     17DA          3FFF                    ADDLW 0xFF                 
    6108     17DB          3FFF                    ADDLW 0xFF                 
    6109     17DC          3FFF                    ADDLW 0xFF                 
    6110     17DD          3FFF                    ADDLW 0xFF                 
    6111     17DE          3FFF                    ADDLW 0xFF                 
    6112     17DF          3FFF                    ADDLW 0xFF                 
    6113     17E0          3FFF                    ADDLW 0xFF                 
    6114     17E1          3FFF                    ADDLW 0xFF                 
    6115     17E2          3FFF                    ADDLW 0xFF                 
    6116     17E3          3FFF                    ADDLW 0xFF                 
    6117     17E4          3FFF                    ADDLW 0xFF                 
    6118     17E5          3FFF                    ADDLW 0xFF                 
    6119     17E6          3FFF                    ADDLW 0xFF                 
    6120     17E7          3FFF                    ADDLW 0xFF                 
    6121     17E8          3FFF                    ADDLW 0xFF                 
    6122     17E9          3FFF                    ADDLW 0xFF                 
    6123     17EA          3FFF                    ADDLW 0xFF                 
    6124     17EB          3FFF                    ADDLW 0xFF                 
    6125     17EC          3FFF                    ADDLW 0xFF                 
    6126     17ED          3FFF                    ADDLW 0xFF                 
    6127     17EE          3FFF                    ADDLW 0xFF                 
    6128     17EF          3FFF                    ADDLW 0xFF                 
    6129     17F0          3FFF                    ADDLW 0xFF                 
    6130     17F1          3FFF                    ADDLW 0xFF                 
    6131     17F2          3FFF                    ADDLW 0xFF                 
    6132     17F3          3FFF                    ADDLW 0xFF                 
    6133     17F4          3FFF                    ADDLW 0xFF                 
    6134     17F5          3FFF                    ADDLW 0xFF                 
    6135     17F6          3FFF                    ADDLW 0xFF                 
    6136     17F7          3FFF                    ADDLW 0xFF                 
    6137     17F8          3FFF                    ADDLW 0xFF                 
    6138     17F9          3FFF                    ADDLW 0xFF                 
    6139     17FA          3FFF                    ADDLW 0xFF                 
    6140     17FB          3FFF                    ADDLW 0xFF                 
    6141     17FC          3FFF                    ADDLW 0xFF                 
    6142     17FD          3FFF                    ADDLW 0xFF                 
    6143     17FE          3FFF                    ADDLW 0xFF                 
    6144     17FF          3FFF                    ADDLW 0xFF                 
    6145     1800          3FFF                    ADDLW 0xFF                 
    6146     1801          3FFF                    ADDLW 0xFF                 
    6147     1802          3FFF                    ADDLW 0xFF                 
    6148     1803          3FFF                    ADDLW 0xFF                 
    6149     1804          3FFF                    ADDLW 0xFF                 
    6150     1805          3FFF                    ADDLW 0xFF                 
    6151     1806          3FFF                    ADDLW 0xFF                 
    6152     1807          3FFF                    ADDLW 0xFF                 
    6153     1808          3FFF                    ADDLW 0xFF                 
    6154     1809          3FFF                    ADDLW 0xFF                 
    6155     180A          3FFF                    ADDLW 0xFF                 
    6156     180B          3FFF                    ADDLW 0xFF                 
    6157     180C          3FFF                    ADDLW 0xFF                 
    6158     180D          3FFF                    ADDLW 0xFF                 
    6159     180E          3FFF                    ADDLW 0xFF                 
    6160     180F          3FFF                    ADDLW 0xFF                 
    6161     1810          3FFF                    ADDLW 0xFF                 
    6162     1811          3FFF                    ADDLW 0xFF                 
    6163     1812          3FFF                    ADDLW 0xFF                 
    6164     1813          3FFF                    ADDLW 0xFF                 
    6165     1814          3FFF                    ADDLW 0xFF                 
    6166     1815          3FFF                    ADDLW 0xFF                 
    6167     1816          3FFF                    ADDLW 0xFF                 
    6168     1817          3FFF                    ADDLW 0xFF                 
    6169     1818          3FFF                    ADDLW 0xFF                 
    6170     1819          3FFF                    ADDLW 0xFF                 
    6171     181A          3FFF                    ADDLW 0xFF                 
    6172     181B          3FFF                    ADDLW 0xFF                 
    6173     181C          3FFF                    ADDLW 0xFF                 
    6174     181D          3FFF                    ADDLW 0xFF                 
    6175     181E          3FFF                    ADDLW 0xFF                 
    6176     181F          3FFF                    ADDLW 0xFF                 
    6177     1820          3FFF                    ADDLW 0xFF                 
    6178     1821          3FFF                    ADDLW 0xFF                 
    6179     1822          3FFF                    ADDLW 0xFF                 
    6180     1823          3FFF                    ADDLW 0xFF                 
    6181     1824          3FFF                    ADDLW 0xFF                 
    6182     1825          3FFF                    ADDLW 0xFF                 
    6183     1826          3FFF                    ADDLW 0xFF                 
    6184     1827          3FFF                    ADDLW 0xFF                 
    6185     1828          3FFF                    ADDLW 0xFF                 
    6186     1829          3FFF                    ADDLW 0xFF                 
    6187     182A          3FFF                    ADDLW 0xFF                 
    6188     182B          3FFF                    ADDLW 0xFF                 
    6189     182C          3FFF                    ADDLW 0xFF                 
    6190     182D          3FFF                    ADDLW 0xFF                 
    6191     182E          3FFF                    ADDLW 0xFF                 
    6192     182F          3FFF                    ADDLW 0xFF                 
    6193     1830          3FFF                    ADDLW 0xFF                 
    6194     1831          3FFF                    ADDLW 0xFF                 
    6195     1832          3FFF                    ADDLW 0xFF                 
    6196     1833          3FFF                    ADDLW 0xFF                 
    6197     1834          3FFF                    ADDLW 0xFF                 
    6198     1835          3FFF                    ADDLW 0xFF                 
    6199     1836          3FFF                    ADDLW 0xFF                 
    6200     1837          3FFF                    ADDLW 0xFF                 
    6201     1838          3FFF                    ADDLW 0xFF                 
    6202     1839          3FFF                    ADDLW 0xFF                 
    6203     183A          3FFF                    ADDLW 0xFF                 
    6204     183B          3FFF                    ADDLW 0xFF                 
    6205     183C          3FFF                    ADDLW 0xFF                 
    6206     183D          3FFF                    ADDLW 0xFF                 
    6207     183E          3FFF                    ADDLW 0xFF                 
    6208     183F          3FFF                    ADDLW 0xFF                 
    6209     1840          3FFF                    ADDLW 0xFF                 
    6210     1841          3FFF                    ADDLW 0xFF                 
    6211     1842          3FFF                    ADDLW 0xFF                 
    6212     1843          3FFF                    ADDLW 0xFF                 
    6213     1844          3FFF                    ADDLW 0xFF                 
    6214     1845          3FFF                    ADDLW 0xFF                 
    6215     1846          3FFF                    ADDLW 0xFF                 
    6216     1847          3FFF                    ADDLW 0xFF                 
    6217     1848          3FFF                    ADDLW 0xFF                 
    6218     1849          3FFF                    ADDLW 0xFF                 
    6219     184A          3FFF                    ADDLW 0xFF                 
    6220     184B          3FFF                    ADDLW 0xFF                 
    6221     184C          3FFF                    ADDLW 0xFF                 
    6222     184D          3FFF                    ADDLW 0xFF                 
    6223     184E          3FFF                    ADDLW 0xFF                 
    6224     184F          3FFF                    ADDLW 0xFF                 
    6225     1850          3FFF                    ADDLW 0xFF                 
    6226     1851          3FFF                    ADDLW 0xFF                 
    6227     1852          3FFF                    ADDLW 0xFF                 
    6228     1853          3FFF                    ADDLW 0xFF                 
    6229     1854          3FFF                    ADDLW 0xFF                 
    6230     1855          3FFF                    ADDLW 0xFF                 
    6231     1856          3FFF                    ADDLW 0xFF                 
    6232     1857          3FFF                    ADDLW 0xFF                 
    6233     1858          3FFF                    ADDLW 0xFF                 
    6234     1859          3FFF                    ADDLW 0xFF                 
    6235     185A          3FFF                    ADDLW 0xFF                 
    6236     185B          3FFF                    ADDLW 0xFF                 
    6237     185C          3FFF                    ADDLW 0xFF                 
    6238     185D          3FFF                    ADDLW 0xFF                 
    6239     185E          3FFF                    ADDLW 0xFF                 
    6240     185F          3FFF                    ADDLW 0xFF                 
    6241     1860          3FFF                    ADDLW 0xFF                 
    6242     1861          3FFF                    ADDLW 0xFF                 
    6243     1862          3FFF                    ADDLW 0xFF                 
    6244     1863          3FFF                    ADDLW 0xFF                 
    6245     1864          3FFF                    ADDLW 0xFF                 
    6246     1865          3FFF                    ADDLW 0xFF                 
    6247     1866          3FFF                    ADDLW 0xFF                 
    6248     1867          3FFF                    ADDLW 0xFF                 
    6249     1868          3FFF                    ADDLW 0xFF                 
    6250     1869          3FFF                    ADDLW 0xFF                 
    6251     186A          3FFF                    ADDLW 0xFF                 
    6252     186B          3FFF                    ADDLW 0xFF                 
    6253     186C          3FFF                    ADDLW 0xFF                 
    6254     186D          3FFF                    ADDLW 0xFF                 
    6255     186E          3FFF                    ADDLW 0xFF                 
    6256     186F          3FFF                    ADDLW 0xFF                 
    6257     1870          3FFF                    ADDLW 0xFF                 
    6258     1871          3FFF                    ADDLW 0xFF                 
    6259     1872          3FFF                    ADDLW 0xFF                 
    6260     1873          3FFF                    ADDLW 0xFF                 
    6261     1874          3FFF                    ADDLW 0xFF                 
    6262     1875          3FFF                    ADDLW 0xFF                 
    6263     1876          3FFF                    ADDLW 0xFF                 
    6264     1877          3FFF                    ADDLW 0xFF                 
    6265     1878          3FFF                    ADDLW 0xFF                 
    6266     1879          3FFF                    ADDLW 0xFF                 
    6267     187A          3FFF                    ADDLW 0xFF                 
    6268     187B          3FFF                    ADDLW 0xFF                 
    6269     187C          3FFF                    ADDLW 0xFF                 
    6270     187D          3FFF                    ADDLW 0xFF                 
    6271     187E          3FFF                    ADDLW 0xFF                 
    6272     187F          3FFF                    ADDLW 0xFF                 
    6273     1880          3FFF                    ADDLW 0xFF                 
    6274     1881          3FFF                    ADDLW 0xFF                 
    6275     1882          3FFF                    ADDLW 0xFF                 
    6276     1883          3FFF                    ADDLW 0xFF                 
    6277     1884          3FFF                    ADDLW 0xFF                 
    6278     1885          3FFF                    ADDLW 0xFF                 
    6279     1886          3FFF                    ADDLW 0xFF                 
    6280     1887          3FFF                    ADDLW 0xFF                 
    6281     1888          3FFF                    ADDLW 0xFF                 
    6282     1889          3FFF                    ADDLW 0xFF                 
    6283     188A          3FFF                    ADDLW 0xFF                 
    6284     188B          3FFF                    ADDLW 0xFF                 
    6285     188C          3FFF                    ADDLW 0xFF                 
    6286     188D          3FFF                    ADDLW 0xFF                 
    6287     188E          3FFF                    ADDLW 0xFF                 
    6288     188F          3FFF                    ADDLW 0xFF                 
    6289     1890          3FFF                    ADDLW 0xFF                 
    6290     1891          3FFF                    ADDLW 0xFF                 
    6291     1892          3FFF                    ADDLW 0xFF                 
    6292     1893          3FFF                    ADDLW 0xFF                 
    6293     1894          3FFF                    ADDLW 0xFF                 
    6294     1895          3FFF                    ADDLW 0xFF                 
    6295     1896          3FFF                    ADDLW 0xFF                 
    6296     1897          3FFF                    ADDLW 0xFF                 
    6297     1898          3FFF                    ADDLW 0xFF                 
    6298     1899          3FFF                    ADDLW 0xFF                 
    6299     189A          3FFF                    ADDLW 0xFF                 
    6300     189B          3FFF                    ADDLW 0xFF                 
    6301     189C          3FFF                    ADDLW 0xFF                 
    6302     189D          3FFF                    ADDLW 0xFF                 
    6303     189E          3FFF                    ADDLW 0xFF                 
    6304     189F          3FFF                    ADDLW 0xFF                 
    6305     18A0          3FFF                    ADDLW 0xFF                 
    6306     18A1          3FFF                    ADDLW 0xFF                 
    6307     18A2          3FFF                    ADDLW 0xFF                 
    6308     18A3          3FFF                    ADDLW 0xFF                 
    6309     18A4          3FFF                    ADDLW 0xFF                 
    6310     18A5          3FFF                    ADDLW 0xFF                 
    6311     18A6          3FFF                    ADDLW 0xFF                 
    6312     18A7          3FFF                    ADDLW 0xFF                 
    6313     18A8          3FFF                    ADDLW 0xFF                 
    6314     18A9          3FFF                    ADDLW 0xFF                 
    6315     18AA          3FFF                    ADDLW 0xFF                 
    6316     18AB          3FFF                    ADDLW 0xFF                 
    6317     18AC          3FFF                    ADDLW 0xFF                 
    6318     18AD          3FFF                    ADDLW 0xFF                 
    6319     18AE          3FFF                    ADDLW 0xFF                 
    6320     18AF          3FFF                    ADDLW 0xFF                 
    6321     18B0          3FFF                    ADDLW 0xFF                 
    6322     18B1          3FFF                    ADDLW 0xFF                 
    6323     18B2          3FFF                    ADDLW 0xFF                 
    6324     18B3          3FFF                    ADDLW 0xFF                 
    6325     18B4          3FFF                    ADDLW 0xFF                 
    6326     18B5          3FFF                    ADDLW 0xFF                 
    6327     18B6          3FFF                    ADDLW 0xFF                 
    6328     18B7          3FFF                    ADDLW 0xFF                 
    6329     18B8          3FFF                    ADDLW 0xFF                 
    6330     18B9          3FFF                    ADDLW 0xFF                 
    6331     18BA          3FFF                    ADDLW 0xFF                 
    6332     18BB          3FFF                    ADDLW 0xFF                 
    6333     18BC          3FFF                    ADDLW 0xFF                 
    6334     18BD          3FFF                    ADDLW 0xFF                 
    6335     18BE          3FFF                    ADDLW 0xFF                 
    6336     18BF          3FFF                    ADDLW 0xFF                 
    6337     18C0          3FFF                    ADDLW 0xFF                 
    6338     18C1          3FFF                    ADDLW 0xFF                 
    6339     18C2          3FFF                    ADDLW 0xFF                 
    6340     18C3          3FFF                    ADDLW 0xFF                 
    6341     18C4          3FFF                    ADDLW 0xFF                 
    6342     18C5          3FFF                    ADDLW 0xFF                 
    6343     18C6          3FFF                    ADDLW 0xFF                 
    6344     18C7          3FFF                    ADDLW 0xFF                 
    6345     18C8          3FFF                    ADDLW 0xFF                 
    6346     18C9          3FFF                    ADDLW 0xFF                 
    6347     18CA          3FFF                    ADDLW 0xFF                 
    6348     18CB          3FFF                    ADDLW 0xFF                 
    6349     18CC          3FFF                    ADDLW 0xFF                 
    6350     18CD          3FFF                    ADDLW 0xFF                 
    6351     18CE          3FFF                    ADDLW 0xFF                 
    6352     18CF          3FFF                    ADDLW 0xFF                 
    6353     18D0          3FFF                    ADDLW 0xFF                 
    6354     18D1          3FFF                    ADDLW 0xFF                 
    6355     18D2          3FFF                    ADDLW 0xFF                 
    6356     18D3          3FFF                    ADDLW 0xFF                 
    6357     18D4          3FFF                    ADDLW 0xFF                 
    6358     18D5          3FFF                    ADDLW 0xFF                 
    6359     18D6          3FFF                    ADDLW 0xFF                 
    6360     18D7          3FFF                    ADDLW 0xFF                 
    6361     18D8          3FFF                    ADDLW 0xFF                 
    6362     18D9          3FFF                    ADDLW 0xFF                 
    6363     18DA          3FFF                    ADDLW 0xFF                 
    6364     18DB          3FFF                    ADDLW 0xFF                 
    6365     18DC          3FFF                    ADDLW 0xFF                 
    6366     18DD          3FFF                    ADDLW 0xFF                 
    6367     18DE          3FFF                    ADDLW 0xFF                 
    6368     18DF          3FFF                    ADDLW 0xFF                 
    6369     18E0          3FFF                    ADDLW 0xFF                 
    6370     18E1          3FFF                    ADDLW 0xFF                 
    6371     18E2          3FFF                    ADDLW 0xFF                 
    6372     18E3          3FFF                    ADDLW 0xFF                 
    6373     18E4          3FFF                    ADDLW 0xFF                 
    6374     18E5          3FFF                    ADDLW 0xFF                 
    6375     18E6          3FFF                    ADDLW 0xFF                 
    6376     18E7          3FFF                    ADDLW 0xFF                 
    6377     18E8          3FFF                    ADDLW 0xFF                 
    6378     18E9          3FFF                    ADDLW 0xFF                 
    6379     18EA          3FFF                    ADDLW 0xFF                 
    6380     18EB          3FFF                    ADDLW 0xFF                 
    6381     18EC          3FFF                    ADDLW 0xFF                 
    6382     18ED          3FFF                    ADDLW 0xFF                 
    6383     18EE          3FFF                    ADDLW 0xFF                 
    6384     18EF          3FFF                    ADDLW 0xFF                 
    6385     18F0          3FFF                    ADDLW 0xFF                 
    6386     18F1          3FFF                    ADDLW 0xFF                 
    6387     18F2          3FFF                    ADDLW 0xFF                 
    6388     18F3          3FFF                    ADDLW 0xFF                 
    6389     18F4          3FFF                    ADDLW 0xFF                 
    6390     18F5          3FFF                    ADDLW 0xFF                 
    6391     18F6          3FFF                    ADDLW 0xFF                 
    6392     18F7          3FFF                    ADDLW 0xFF                 
    6393     18F8          3FFF                    ADDLW 0xFF                 
    6394     18F9          3FFF                    ADDLW 0xFF                 
    6395     18FA          3FFF                    ADDLW 0xFF                 
    6396     18FB          3FFF                    ADDLW 0xFF                 
    6397     18FC          3FFF                    ADDLW 0xFF                 
    6398     18FD          3FFF                    ADDLW 0xFF                 
    6399     18FE          3FFF                    ADDLW 0xFF                 
    6400     18FF          3FFF                    ADDLW 0xFF                 
    6401     1900          3FFF                    ADDLW 0xFF                 
    6402     1901          3FFF                    ADDLW 0xFF                 
    6403     1902          3FFF                    ADDLW 0xFF                 
    6404     1903          3FFF                    ADDLW 0xFF                 
    6405     1904          3FFF                    ADDLW 0xFF                 
    6406     1905          3FFF                    ADDLW 0xFF                 
    6407     1906          3FFF                    ADDLW 0xFF                 
    6408     1907          3FFF                    ADDLW 0xFF                 
    6409     1908          3FFF                    ADDLW 0xFF                 
    6410     1909          3FFF                    ADDLW 0xFF                 
    6411     190A          3FFF                    ADDLW 0xFF                 
    6412     190B          3FFF                    ADDLW 0xFF                 
    6413     190C          3FFF                    ADDLW 0xFF                 
    6414     190D          3FFF                    ADDLW 0xFF                 
    6415     190E          3FFF                    ADDLW 0xFF                 
    6416     190F          3FFF                    ADDLW 0xFF                 
    6417     1910          3FFF                    ADDLW 0xFF                 
    6418     1911          3FFF                    ADDLW 0xFF                 
    6419     1912          3FFF                    ADDLW 0xFF                 
    6420     1913          3FFF                    ADDLW 0xFF                 
    6421     1914          3FFF                    ADDLW 0xFF                 
    6422     1915          3FFF                    ADDLW 0xFF                 
    6423     1916          3FFF                    ADDLW 0xFF                 
    6424     1917          3FFF                    ADDLW 0xFF                 
    6425     1918          3FFF                    ADDLW 0xFF                 
    6426     1919          3FFF                    ADDLW 0xFF                 
    6427     191A          3FFF                    ADDLW 0xFF                 
    6428     191B          3FFF                    ADDLW 0xFF                 
    6429     191C          3FFF                    ADDLW 0xFF                 
    6430     191D          3FFF                    ADDLW 0xFF                 
    6431     191E          3FFF                    ADDLW 0xFF                 
    6432     191F          3FFF                    ADDLW 0xFF                 
    6433     1920          3FFF                    ADDLW 0xFF                 
    6434     1921          3FFF                    ADDLW 0xFF                 
    6435     1922          3FFF                    ADDLW 0xFF                 
    6436     1923          3FFF                    ADDLW 0xFF                 
    6437     1924          3FFF                    ADDLW 0xFF                 
    6438     1925          3FFF                    ADDLW 0xFF                 
    6439     1926          3FFF                    ADDLW 0xFF                 
    6440     1927          3FFF                    ADDLW 0xFF                 
    6441     1928          3FFF                    ADDLW 0xFF                 
    6442     1929          3FFF                    ADDLW 0xFF                 
    6443     192A          3FFF                    ADDLW 0xFF                 
    6444     192B          3FFF                    ADDLW 0xFF                 
    6445     192C          3FFF                    ADDLW 0xFF                 
    6446     192D          3FFF                    ADDLW 0xFF                 
    6447     192E          3FFF                    ADDLW 0xFF                 
    6448     192F          3FFF                    ADDLW 0xFF                 
    6449     1930          3FFF                    ADDLW 0xFF                 
    6450     1931          3FFF                    ADDLW 0xFF                 
    6451     1932          3FFF                    ADDLW 0xFF                 
    6452     1933          3FFF                    ADDLW 0xFF                 
    6453     1934          3FFF                    ADDLW 0xFF                 
    6454     1935          3FFF                    ADDLW 0xFF                 
    6455     1936          3FFF                    ADDLW 0xFF                 
    6456     1937          3FFF                    ADDLW 0xFF                 
    6457     1938          3FFF                    ADDLW 0xFF                 
    6458     1939          3FFF                    ADDLW 0xFF                 
    6459     193A          3FFF                    ADDLW 0xFF                 
    6460     193B          3FFF                    ADDLW 0xFF                 
    6461     193C          3FFF                    ADDLW 0xFF                 
    6462     193D          3FFF                    ADDLW 0xFF                 
    6463     193E          3FFF                    ADDLW 0xFF                 
    6464     193F          3FFF                    ADDLW 0xFF                 
    6465     1940          3FFF                    ADDLW 0xFF                 
    6466     1941          3FFF                    ADDLW 0xFF                 
    6467     1942          3FFF                    ADDLW 0xFF                 
    6468     1943          3FFF                    ADDLW 0xFF                 
    6469     1944          3FFF                    ADDLW 0xFF                 
    6470     1945          3FFF                    ADDLW 0xFF                 
    6471     1946          3FFF                    ADDLW 0xFF                 
    6472     1947          3FFF                    ADDLW 0xFF                 
    6473     1948          3FFF                    ADDLW 0xFF                 
    6474     1949          3FFF                    ADDLW 0xFF                 
    6475     194A          3FFF                    ADDLW 0xFF                 
    6476     194B          3FFF                    ADDLW 0xFF                 
    6477     194C          3FFF                    ADDLW 0xFF                 
    6478     194D          3FFF                    ADDLW 0xFF                 
    6479     194E          3FFF                    ADDLW 0xFF                 
    6480     194F          3FFF                    ADDLW 0xFF                 
    6481     1950          3FFF                    ADDLW 0xFF                 
    6482     1951          3FFF                    ADDLW 0xFF                 
    6483     1952          3FFF                    ADDLW 0xFF                 
    6484     1953          3FFF                    ADDLW 0xFF                 
    6485     1954          3FFF                    ADDLW 0xFF                 
    6486     1955          3FFF                    ADDLW 0xFF                 
    6487     1956          3FFF                    ADDLW 0xFF                 
    6488     1957          3FFF                    ADDLW 0xFF                 
    6489     1958          3FFF                    ADDLW 0xFF                 
    6490     1959          3FFF                    ADDLW 0xFF                 
    6491     195A          3FFF                    ADDLW 0xFF                 
    6492     195B          3FFF                    ADDLW 0xFF                 
    6493     195C          3FFF                    ADDLW 0xFF                 
    6494     195D          3FFF                    ADDLW 0xFF                 
    6495     195E          3FFF                    ADDLW 0xFF                 
    6496     195F          3FFF                    ADDLW 0xFF                 
    6497     1960          3FFF                    ADDLW 0xFF                 
    6498     1961          3FFF                    ADDLW 0xFF                 
    6499     1962          3FFF                    ADDLW 0xFF                 
    6500     1963          3FFF                    ADDLW 0xFF                 
    6501     1964          3FFF                    ADDLW 0xFF                 
    6502     1965          3FFF                    ADDLW 0xFF                 
    6503     1966          3FFF                    ADDLW 0xFF                 
    6504     1967          3FFF                    ADDLW 0xFF                 
    6505     1968          3FFF                    ADDLW 0xFF                 
    6506     1969          3FFF                    ADDLW 0xFF                 
    6507     196A          3FFF                    ADDLW 0xFF                 
    6508     196B          3FFF                    ADDLW 0xFF                 
    6509     196C          3FFF                    ADDLW 0xFF                 
    6510     196D          3FFF                    ADDLW 0xFF                 
    6511     196E          3FFF                    ADDLW 0xFF                 
    6512     196F          3FFF                    ADDLW 0xFF                 
    6513     1970          3FFF                    ADDLW 0xFF                 
    6514     1971          3FFF                    ADDLW 0xFF                 
    6515     1972          3FFF                    ADDLW 0xFF                 
    6516     1973          3FFF                    ADDLW 0xFF                 
    6517     1974          3FFF                    ADDLW 0xFF                 
    6518     1975          3FFF                    ADDLW 0xFF                 
    6519     1976          3FFF                    ADDLW 0xFF                 
    6520     1977          3FFF                    ADDLW 0xFF                 
    6521     1978          3FFF                    ADDLW 0xFF                 
    6522     1979          3FFF                    ADDLW 0xFF                 
    6523     197A          3FFF                    ADDLW 0xFF                 
    6524     197B          3FFF                    ADDLW 0xFF                 
    6525     197C          3FFF                    ADDLW 0xFF                 
    6526     197D          3FFF                    ADDLW 0xFF                 
    6527     197E          3FFF                    ADDLW 0xFF                 
    6528     197F          3FFF                    ADDLW 0xFF                 
    6529     1980          3FFF                    ADDLW 0xFF                 
    6530     1981          3FFF                    ADDLW 0xFF                 
    6531     1982          3FFF                    ADDLW 0xFF                 
    6532     1983          3FFF                    ADDLW 0xFF                 
    6533     1984          3FFF                    ADDLW 0xFF                 
    6534     1985          3FFF                    ADDLW 0xFF                 
    6535     1986          3FFF                    ADDLW 0xFF                 
    6536     1987          3FFF                    ADDLW 0xFF                 
    6537     1988          3FFF                    ADDLW 0xFF                 
    6538     1989          3FFF                    ADDLW 0xFF                 
    6539     198A          3FFF                    ADDLW 0xFF                 
    6540     198B          3FFF                    ADDLW 0xFF                 
    6541     198C          3FFF                    ADDLW 0xFF                 
    6542     198D          3FFF                    ADDLW 0xFF                 
    6543     198E          3FFF                    ADDLW 0xFF                 
    6544     198F          3FFF                    ADDLW 0xFF                 
    6545     1990          3FFF                    ADDLW 0xFF                 
    6546     1991          3FFF                    ADDLW 0xFF                 
    6547     1992          3FFF                    ADDLW 0xFF                 
    6548     1993          3FFF                    ADDLW 0xFF                 
    6549     1994          3FFF                    ADDLW 0xFF                 
    6550     1995          3FFF                    ADDLW 0xFF                 
    6551     1996          3FFF                    ADDLW 0xFF                 
    6552     1997          3FFF                    ADDLW 0xFF                 
    6553     1998          3FFF                    ADDLW 0xFF                 
    6554     1999          3FFF                    ADDLW 0xFF                 
    6555     199A          3FFF                    ADDLW 0xFF                 
    6556     199B          3FFF                    ADDLW 0xFF                 
    6557     199C          3FFF                    ADDLW 0xFF                 
    6558     199D          3FFF                    ADDLW 0xFF                 
    6559     199E          3FFF                    ADDLW 0xFF                 
    6560     199F          3FFF                    ADDLW 0xFF                 
    6561     19A0          3FFF                    ADDLW 0xFF                 
    6562     19A1          3FFF                    ADDLW 0xFF                 
    6563     19A2          3FFF                    ADDLW 0xFF                 
    6564     19A3          3FFF                    ADDLW 0xFF                 
    6565     19A4          3FFF                    ADDLW 0xFF                 
    6566     19A5          3FFF                    ADDLW 0xFF                 
    6567     19A6          3FFF                    ADDLW 0xFF                 
    6568     19A7          3FFF                    ADDLW 0xFF                 
    6569     19A8          3FFF                    ADDLW 0xFF                 
    6570     19A9          3FFF                    ADDLW 0xFF                 
    6571     19AA          3FFF                    ADDLW 0xFF                 
    6572     19AB          3FFF                    ADDLW 0xFF                 
    6573     19AC          3FFF                    ADDLW 0xFF                 
    6574     19AD          3FFF                    ADDLW 0xFF                 
    6575     19AE          3FFF                    ADDLW 0xFF                 
    6576     19AF          3FFF                    ADDLW 0xFF                 
    6577     19B0          3FFF                    ADDLW 0xFF                 
    6578     19B1          3FFF                    ADDLW 0xFF                 
    6579     19B2          3FFF                    ADDLW 0xFF                 
    6580     19B3          3FFF                    ADDLW 0xFF                 
    6581     19B4          3FFF                    ADDLW 0xFF                 
    6582     19B5          3FFF                    ADDLW 0xFF                 
    6583     19B6          3FFF                    ADDLW 0xFF                 
    6584     19B7          3FFF                    ADDLW 0xFF                 
    6585     19B8          3FFF                    ADDLW 0xFF                 
    6586     19B9          3FFF                    ADDLW 0xFF                 
    6587     19BA          3FFF                    ADDLW 0xFF                 
    6588     19BB          3FFF                    ADDLW 0xFF                 
    6589     19BC          3FFF                    ADDLW 0xFF                 
    6590     19BD          3FFF                    ADDLW 0xFF                 
    6591     19BE          3FFF                    ADDLW 0xFF                 
    6592     19BF          3FFF                    ADDLW 0xFF                 
    6593     19C0          3FFF                    ADDLW 0xFF                 
    6594     19C1          3FFF                    ADDLW 0xFF                 
    6595     19C2          3FFF                    ADDLW 0xFF                 
    6596     19C3          3FFF                    ADDLW 0xFF                 
    6597     19C4          3FFF                    ADDLW 0xFF                 
    6598     19C5          3FFF                    ADDLW 0xFF                 
    6599     19C6          3FFF                    ADDLW 0xFF                 
    6600     19C7          3FFF                    ADDLW 0xFF                 
    6601     19C8          3FFF                    ADDLW 0xFF                 
    6602     19C9          3FFF                    ADDLW 0xFF                 
    6603     19CA          3FFF                    ADDLW 0xFF                 
    6604     19CB          3FFF                    ADDLW 0xFF                 
    6605     19CC          3FFF                    ADDLW 0xFF                 
    6606     19CD          3FFF                    ADDLW 0xFF                 
    6607     19CE          3FFF                    ADDLW 0xFF                 
    6608     19CF          3FFF                    ADDLW 0xFF                 
    6609     19D0          3FFF                    ADDLW 0xFF                 
    6610     19D1          3FFF                    ADDLW 0xFF                 
    6611     19D2          3FFF                    ADDLW 0xFF                 
    6612     19D3          3FFF                    ADDLW 0xFF                 
    6613     19D4          3FFF                    ADDLW 0xFF                 
    6614     19D5          3FFF                    ADDLW 0xFF                 
    6615     19D6          3FFF                    ADDLW 0xFF                 
    6616     19D7          3FFF                    ADDLW 0xFF                 
    6617     19D8          3FFF                    ADDLW 0xFF                 
    6618     19D9          3FFF                    ADDLW 0xFF                 
    6619     19DA          3FFF                    ADDLW 0xFF                 
    6620     19DB          3FFF                    ADDLW 0xFF                 
    6621     19DC          3FFF                    ADDLW 0xFF                 
    6622     19DD          3FFF                    ADDLW 0xFF                 
    6623     19DE          3FFF                    ADDLW 0xFF                 
    6624     19DF          3FFF                    ADDLW 0xFF                 
    6625     19E0          3FFF                    ADDLW 0xFF                 
    6626     19E1          3FFF                    ADDLW 0xFF                 
    6627     19E2          3FFF                    ADDLW 0xFF                 
    6628     19E3          3FFF                    ADDLW 0xFF                 
    6629     19E4          3FFF                    ADDLW 0xFF                 
    6630     19E5          3FFF                    ADDLW 0xFF                 
    6631     19E6          3FFF                    ADDLW 0xFF                 
    6632     19E7          3FFF                    ADDLW 0xFF                 
    6633     19E8          3FFF                    ADDLW 0xFF                 
    6634     19E9          3FFF                    ADDLW 0xFF                 
    6635     19EA          3FFF                    ADDLW 0xFF                 
    6636     19EB          3FFF                    ADDLW 0xFF                 
    6637     19EC          3FFF                    ADDLW 0xFF                 
    6638     19ED          3FFF                    ADDLW 0xFF                 
    6639     19EE          3FFF                    ADDLW 0xFF                 
    6640     19EF          3FFF                    ADDLW 0xFF                 
    6641     19F0          3FFF                    ADDLW 0xFF                 
    6642     19F1          3FFF                    ADDLW 0xFF                 
    6643     19F2          3FFF                    ADDLW 0xFF                 
    6644     19F3          3FFF                    ADDLW 0xFF                 
    6645     19F4          3FFF                    ADDLW 0xFF                 
    6646     19F5          3FFF                    ADDLW 0xFF                 
    6647     19F6          3FFF                    ADDLW 0xFF                 
    6648     19F7          3FFF                    ADDLW 0xFF                 
    6649     19F8          3FFF                    ADDLW 0xFF                 
    6650     19F9          3FFF                    ADDLW 0xFF                 
    6651     19FA          3FFF                    ADDLW 0xFF                 
    6652     19FB          3FFF                    ADDLW 0xFF                 
    6653     19FC          3FFF                    ADDLW 0xFF                 
    6654     19FD          3FFF                    ADDLW 0xFF                 
    6655     19FE          3FFF                    ADDLW 0xFF                 
    6656     19FF          3FFF                    ADDLW 0xFF                 
    6657     1A00          3FFF                    ADDLW 0xFF                 
    6658     1A01          3FFF                    ADDLW 0xFF                 
    6659     1A02          3FFF                    ADDLW 0xFF                 
    6660     1A03          3FFF                    ADDLW 0xFF                 
    6661     1A04          3FFF                    ADDLW 0xFF                 
    6662     1A05          3FFF                    ADDLW 0xFF                 
    6663     1A06          3FFF                    ADDLW 0xFF                 
    6664     1A07          3FFF                    ADDLW 0xFF                 
    6665     1A08          3FFF                    ADDLW 0xFF                 
    6666     1A09          3FFF                    ADDLW 0xFF                 
    6667     1A0A          3FFF                    ADDLW 0xFF                 
    6668     1A0B          3FFF                    ADDLW 0xFF                 
    6669     1A0C          3FFF                    ADDLW 0xFF                 
    6670     1A0D          3FFF                    ADDLW 0xFF                 
    6671     1A0E          3FFF                    ADDLW 0xFF                 
    6672     1A0F          3FFF                    ADDLW 0xFF                 
    6673     1A10          3FFF                    ADDLW 0xFF                 
    6674     1A11          3FFF                    ADDLW 0xFF                 
    6675     1A12          3FFF                    ADDLW 0xFF                 
    6676     1A13          3FFF                    ADDLW 0xFF                 
    6677     1A14          3FFF                    ADDLW 0xFF                 
    6678     1A15          3FFF                    ADDLW 0xFF                 
    6679     1A16          3FFF                    ADDLW 0xFF                 
    6680     1A17          3FFF                    ADDLW 0xFF                 
    6681     1A18          3FFF                    ADDLW 0xFF                 
    6682     1A19          3FFF                    ADDLW 0xFF                 
    6683     1A1A          3FFF                    ADDLW 0xFF                 
    6684     1A1B          3FFF                    ADDLW 0xFF                 
    6685     1A1C          3FFF                    ADDLW 0xFF                 
    6686     1A1D          3FFF                    ADDLW 0xFF                 
    6687     1A1E          3FFF                    ADDLW 0xFF                 
    6688     1A1F          3FFF                    ADDLW 0xFF                 
    6689     1A20          3FFF                    ADDLW 0xFF                 
    6690     1A21          3FFF                    ADDLW 0xFF                 
    6691     1A22          3FFF                    ADDLW 0xFF                 
    6692     1A23          3FFF                    ADDLW 0xFF                 
    6693     1A24          3FFF                    ADDLW 0xFF                 
    6694     1A25          3FFF                    ADDLW 0xFF                 
    6695     1A26          3FFF                    ADDLW 0xFF                 
    6696     1A27          3FFF                    ADDLW 0xFF                 
    6697     1A28          3FFF                    ADDLW 0xFF                 
    6698     1A29          3FFF                    ADDLW 0xFF                 
    6699     1A2A          3FFF                    ADDLW 0xFF                 
    6700     1A2B          3FFF                    ADDLW 0xFF                 
    6701     1A2C          3FFF                    ADDLW 0xFF                 
    6702     1A2D          3FFF                    ADDLW 0xFF                 
    6703     1A2E          3FFF                    ADDLW 0xFF                 
    6704     1A2F          3FFF                    ADDLW 0xFF                 
    6705     1A30          3FFF                    ADDLW 0xFF                 
    6706     1A31          3FFF                    ADDLW 0xFF                 
    6707     1A32          3FFF                    ADDLW 0xFF                 
    6708     1A33          3FFF                    ADDLW 0xFF                 
    6709     1A34          3FFF                    ADDLW 0xFF                 
    6710     1A35          3FFF                    ADDLW 0xFF                 
    6711     1A36          3FFF                    ADDLW 0xFF                 
    6712     1A37          3FFF                    ADDLW 0xFF                 
    6713     1A38          3FFF                    ADDLW 0xFF                 
    6714     1A39          3FFF                    ADDLW 0xFF                 
    6715     1A3A          3FFF                    ADDLW 0xFF                 
    6716     1A3B          3FFF                    ADDLW 0xFF                 
    6717     1A3C          3FFF                    ADDLW 0xFF                 
    6718     1A3D          3FFF                    ADDLW 0xFF                 
    6719     1A3E          3FFF                    ADDLW 0xFF                 
    6720     1A3F          3FFF                    ADDLW 0xFF                 
    6721     1A40          3FFF                    ADDLW 0xFF                 
    6722     1A41          3FFF                    ADDLW 0xFF                 
    6723     1A42          3FFF                    ADDLW 0xFF                 
    6724     1A43          3FFF                    ADDLW 0xFF                 
    6725     1A44          3FFF                    ADDLW 0xFF                 
    6726     1A45          3FFF                    ADDLW 0xFF                 
    6727     1A46          3FFF                    ADDLW 0xFF                 
    6728     1A47          3FFF                    ADDLW 0xFF                 
    6729     1A48          3FFF                    ADDLW 0xFF                 
    6730     1A49          3FFF                    ADDLW 0xFF                 
    6731     1A4A          3FFF                    ADDLW 0xFF                 
    6732     1A4B          3FFF                    ADDLW 0xFF                 
    6733     1A4C          3FFF                    ADDLW 0xFF                 
    6734     1A4D          3FFF                    ADDLW 0xFF                 
    6735     1A4E          3FFF                    ADDLW 0xFF                 
    6736     1A4F          3FFF                    ADDLW 0xFF                 
    6737     1A50          3FFF                    ADDLW 0xFF                 
    6738     1A51          3FFF                    ADDLW 0xFF                 
    6739     1A52          3FFF                    ADDLW 0xFF                 
    6740     1A53          3FFF                    ADDLW 0xFF                 
    6741     1A54          3FFF                    ADDLW 0xFF                 
    6742     1A55          3FFF                    ADDLW 0xFF                 
    6743     1A56          3FFF                    ADDLW 0xFF                 
    6744     1A57          3FFF                    ADDLW 0xFF                 
    6745     1A58          3FFF                    ADDLW 0xFF                 
    6746     1A59          3FFF                    ADDLW 0xFF                 
    6747     1A5A          3FFF                    ADDLW 0xFF                 
    6748     1A5B          3FFF                    ADDLW 0xFF                 
    6749     1A5C          3FFF                    ADDLW 0xFF                 
    6750     1A5D          3FFF                    ADDLW 0xFF                 
    6751     1A5E          3FFF                    ADDLW 0xFF                 
    6752     1A5F          3FFF                    ADDLW 0xFF                 
    6753     1A60          3FFF                    ADDLW 0xFF                 
    6754     1A61          3FFF                    ADDLW 0xFF                 
    6755     1A62          3FFF                    ADDLW 0xFF                 
    6756     1A63          3FFF                    ADDLW 0xFF                 
    6757     1A64          3FFF                    ADDLW 0xFF                 
    6758     1A65          3FFF                    ADDLW 0xFF                 
    6759     1A66          3FFF                    ADDLW 0xFF                 
    6760     1A67          3FFF                    ADDLW 0xFF                 
    6761     1A68          3FFF                    ADDLW 0xFF                 
    6762     1A69          3FFF                    ADDLW 0xFF                 
    6763     1A6A          3FFF                    ADDLW 0xFF                 
    6764     1A6B          3FFF                    ADDLW 0xFF                 
    6765     1A6C          3FFF                    ADDLW 0xFF                 
    6766     1A6D          3FFF                    ADDLW 0xFF                 
    6767     1A6E          3FFF                    ADDLW 0xFF                 
    6768     1A6F          3FFF                    ADDLW 0xFF                 
    6769     1A70          3FFF                    ADDLW 0xFF                 
    6770     1A71          3FFF                    ADDLW 0xFF                 
    6771     1A72          3FFF                    ADDLW 0xFF                 
    6772     1A73          3FFF                    ADDLW 0xFF                 
    6773     1A74          3FFF                    ADDLW 0xFF                 
    6774     1A75          3FFF                    ADDLW 0xFF                 
    6775     1A76          3FFF                    ADDLW 0xFF                 
    6776     1A77          3FFF                    ADDLW 0xFF                 
    6777     1A78          3FFF                    ADDLW 0xFF                 
    6778     1A79          3FFF                    ADDLW 0xFF                 
    6779     1A7A          3FFF                    ADDLW 0xFF                 
    6780     1A7B          3FFF                    ADDLW 0xFF                 
    6781     1A7C          3FFF                    ADDLW 0xFF                 
    6782     1A7D          3FFF                    ADDLW 0xFF                 
    6783     1A7E          3FFF                    ADDLW 0xFF                 
    6784     1A7F          3FFF                    ADDLW 0xFF                 
    6785     1A80          3FFF                    ADDLW 0xFF                 
    6786     1A81          3FFF                    ADDLW 0xFF                 
    6787     1A82          3FFF                    ADDLW 0xFF                 
    6788     1A83          3FFF                    ADDLW 0xFF                 
    6789     1A84          3FFF                    ADDLW 0xFF                 
    6790     1A85          3FFF                    ADDLW 0xFF                 
    6791     1A86          3FFF                    ADDLW 0xFF                 
    6792     1A87          3FFF                    ADDLW 0xFF                 
    6793     1A88          3FFF                    ADDLW 0xFF                 
    6794     1A89          3FFF                    ADDLW 0xFF                 
    6795     1A8A          3FFF                    ADDLW 0xFF                 
    6796     1A8B          3FFF                    ADDLW 0xFF                 
    6797     1A8C          3FFF                    ADDLW 0xFF                 
    6798     1A8D          3FFF                    ADDLW 0xFF                 
    6799     1A8E          3FFF                    ADDLW 0xFF                 
    6800     1A8F          3FFF                    ADDLW 0xFF                 
    6801     1A90          3FFF                    ADDLW 0xFF                 
    6802     1A91          3FFF                    ADDLW 0xFF                 
    6803     1A92          3FFF                    ADDLW 0xFF                 
    6804     1A93          3FFF                    ADDLW 0xFF                 
    6805     1A94          3FFF                    ADDLW 0xFF                 
    6806     1A95          3FFF                    ADDLW 0xFF                 
    6807     1A96          3FFF                    ADDLW 0xFF                 
    6808     1A97          3FFF                    ADDLW 0xFF                 
    6809     1A98          3FFF                    ADDLW 0xFF                 
    6810     1A99          3FFF                    ADDLW 0xFF                 
    6811     1A9A          3FFF                    ADDLW 0xFF                 
    6812     1A9B          3FFF                    ADDLW 0xFF                 
    6813     1A9C          3FFF                    ADDLW 0xFF                 
    6814     1A9D          3FFF                    ADDLW 0xFF                 
    6815     1A9E          3FFF                    ADDLW 0xFF                 
    6816     1A9F          3FFF                    ADDLW 0xFF                 
    6817     1AA0          3FFF                    ADDLW 0xFF                 
    6818     1AA1          3FFF                    ADDLW 0xFF                 
    6819     1AA2          3FFF                    ADDLW 0xFF                 
    6820     1AA3          3FFF                    ADDLW 0xFF                 
    6821     1AA4          3FFF                    ADDLW 0xFF                 
    6822     1AA5          3FFF                    ADDLW 0xFF                 
    6823     1AA6          3FFF                    ADDLW 0xFF                 
    6824     1AA7          3FFF                    ADDLW 0xFF                 
    6825     1AA8          3FFF                    ADDLW 0xFF                 
    6826     1AA9          3FFF                    ADDLW 0xFF                 
    6827     1AAA          3FFF                    ADDLW 0xFF                 
    6828     1AAB          3FFF                    ADDLW 0xFF                 
    6829     1AAC          3FFF                    ADDLW 0xFF                 
    6830     1AAD          3FFF                    ADDLW 0xFF                 
    6831     1AAE          3FFF                    ADDLW 0xFF                 
    6832     1AAF          3FFF                    ADDLW 0xFF                 
    6833     1AB0          3FFF                    ADDLW 0xFF                 
    6834     1AB1          3FFF                    ADDLW 0xFF                 
    6835     1AB2          3FFF                    ADDLW 0xFF                 
    6836     1AB3          3FFF                    ADDLW 0xFF                 
    6837     1AB4          3FFF                    ADDLW 0xFF                 
    6838     1AB5          3FFF                    ADDLW 0xFF                 
    6839     1AB6          3FFF                    ADDLW 0xFF                 
    6840     1AB7          3FFF                    ADDLW 0xFF                 
    6841     1AB8          3FFF                    ADDLW 0xFF                 
    6842     1AB9          3FFF                    ADDLW 0xFF                 
    6843     1ABA          3FFF                    ADDLW 0xFF                 
    6844     1ABB          3FFF                    ADDLW 0xFF                 
    6845     1ABC          3FFF                    ADDLW 0xFF                 
    6846     1ABD          3FFF                    ADDLW 0xFF                 
    6847     1ABE          3FFF                    ADDLW 0xFF                 
    6848     1ABF          3FFF                    ADDLW 0xFF                 
    6849     1AC0          3FFF                    ADDLW 0xFF                 
    6850     1AC1          3FFF                    ADDLW 0xFF                 
    6851     1AC2          3FFF                    ADDLW 0xFF                 
    6852     1AC3          3FFF                    ADDLW 0xFF                 
    6853     1AC4          3FFF                    ADDLW 0xFF                 
    6854     1AC5          3FFF                    ADDLW 0xFF                 
    6855     1AC6          3FFF                    ADDLW 0xFF                 
    6856     1AC7          3FFF                    ADDLW 0xFF                 
    6857     1AC8          3FFF                    ADDLW 0xFF                 
    6858     1AC9          3FFF                    ADDLW 0xFF                 
    6859     1ACA          3FFF                    ADDLW 0xFF                 
    6860     1ACB          3FFF                    ADDLW 0xFF                 
    6861     1ACC          3FFF                    ADDLW 0xFF                 
    6862     1ACD          3FFF                    ADDLW 0xFF                 
    6863     1ACE          3FFF                    ADDLW 0xFF                 
    6864     1ACF          3FFF                    ADDLW 0xFF                 
    6865     1AD0          3FFF                    ADDLW 0xFF                 
    6866     1AD1          3FFF                    ADDLW 0xFF                 
    6867     1AD2          3FFF                    ADDLW 0xFF                 
    6868     1AD3          3FFF                    ADDLW 0xFF                 
    6869     1AD4          3FFF                    ADDLW 0xFF                 
    6870     1AD5          3FFF                    ADDLW 0xFF                 
    6871     1AD6          3FFF                    ADDLW 0xFF                 
    6872     1AD7          3FFF                    ADDLW 0xFF                 
    6873     1AD8          3FFF                    ADDLW 0xFF                 
    6874     1AD9          3FFF                    ADDLW 0xFF                 
    6875     1ADA          3FFF                    ADDLW 0xFF                 
    6876     1ADB          3FFF                    ADDLW 0xFF                 
    6877     1ADC          3FFF                    ADDLW 0xFF                 
    6878     1ADD          3FFF                    ADDLW 0xFF                 
    6879     1ADE          3FFF                    ADDLW 0xFF                 
    6880     1ADF          3FFF                    ADDLW 0xFF                 
    6881     1AE0          3FFF                    ADDLW 0xFF                 
    6882     1AE1          3FFF                    ADDLW 0xFF                 
    6883     1AE2          3FFF                    ADDLW 0xFF                 
    6884     1AE3          3FFF                    ADDLW 0xFF                 
    6885     1AE4          3FFF                    ADDLW 0xFF                 
    6886     1AE5          3FFF                    ADDLW 0xFF                 
    6887     1AE6          3FFF                    ADDLW 0xFF                 
    6888     1AE7          3FFF                    ADDLW 0xFF                 
    6889     1AE8          3FFF                    ADDLW 0xFF                 
    6890     1AE9          3FFF                    ADDLW 0xFF                 
    6891     1AEA          3FFF                    ADDLW 0xFF                 
    6892     1AEB          3FFF                    ADDLW 0xFF                 
    6893     1AEC          3FFF                    ADDLW 0xFF                 
    6894     1AED          3FFF                    ADDLW 0xFF                 
    6895     1AEE          3FFF                    ADDLW 0xFF                 
    6896     1AEF          3FFF                    ADDLW 0xFF                 
    6897     1AF0          3FFF                    ADDLW 0xFF                 
    6898     1AF1          3FFF                    ADDLW 0xFF                 
    6899     1AF2          3FFF                    ADDLW 0xFF                 
    6900     1AF3          3FFF                    ADDLW 0xFF                 
    6901     1AF4          3FFF                    ADDLW 0xFF                 
    6902     1AF5          3FFF                    ADDLW 0xFF                 
    6903     1AF6          3FFF                    ADDLW 0xFF                 
    6904     1AF7          3FFF                    ADDLW 0xFF                 
    6905     1AF8          3FFF                    ADDLW 0xFF                 
    6906     1AF9          3FFF                    ADDLW 0xFF                 
    6907     1AFA          3FFF                    ADDLW 0xFF                 
    6908     1AFB          3FFF                    ADDLW 0xFF                 
    6909     1AFC          3FFF                    ADDLW 0xFF                 
    6910     1AFD          3FFF                    ADDLW 0xFF                 
    6911     1AFE          3FFF                    ADDLW 0xFF                 
    6912     1AFF          3FFF                    ADDLW 0xFF                 
    6913     1B00          3FFF                    ADDLW 0xFF                 
    6914     1B01          3FFF                    ADDLW 0xFF                 
    6915     1B02          3FFF                    ADDLW 0xFF                 
    6916     1B03          3FFF                    ADDLW 0xFF                 
    6917     1B04          3FFF                    ADDLW 0xFF                 
    6918     1B05          3FFF                    ADDLW 0xFF                 
    6919     1B06          3FFF                    ADDLW 0xFF                 
    6920     1B07          3FFF                    ADDLW 0xFF                 
    6921     1B08          3FFF                    ADDLW 0xFF                 
    6922     1B09          3FFF                    ADDLW 0xFF                 
    6923     1B0A          3FFF                    ADDLW 0xFF                 
    6924     1B0B          3FFF                    ADDLW 0xFF                 
    6925     1B0C          3FFF                    ADDLW 0xFF                 
    6926     1B0D          3FFF                    ADDLW 0xFF                 
    6927     1B0E          3FFF                    ADDLW 0xFF                 
    6928     1B0F          3FFF                    ADDLW 0xFF                 
    6929     1B10          3FFF                    ADDLW 0xFF                 
    6930     1B11          3FFF                    ADDLW 0xFF                 
    6931     1B12          3FFF                    ADDLW 0xFF                 
    6932     1B13          3FFF                    ADDLW 0xFF                 
    6933     1B14          3FFF                    ADDLW 0xFF                 
    6934     1B15          3FFF                    ADDLW 0xFF                 
    6935     1B16          3FFF                    ADDLW 0xFF                 
    6936     1B17          3FFF                    ADDLW 0xFF                 
    6937     1B18          3FFF                    ADDLW 0xFF                 
    6938     1B19          3FFF                    ADDLW 0xFF                 
    6939     1B1A          3FFF                    ADDLW 0xFF                 
    6940     1B1B          3FFF                    ADDLW 0xFF                 
    6941     1B1C          3FFF                    ADDLW 0xFF                 
    6942     1B1D          3FFF                    ADDLW 0xFF                 
    6943     1B1E          3FFF                    ADDLW 0xFF                 
    6944     1B1F          3FFF                    ADDLW 0xFF                 
    6945     1B20          3FFF                    ADDLW 0xFF                 
    6946     1B21          3FFF                    ADDLW 0xFF                 
    6947     1B22          3FFF                    ADDLW 0xFF                 
    6948     1B23          3FFF                    ADDLW 0xFF                 
    6949     1B24          3FFF                    ADDLW 0xFF                 
    6950     1B25          3FFF                    ADDLW 0xFF                 
    6951     1B26          3FFF                    ADDLW 0xFF                 
    6952     1B27          3FFF                    ADDLW 0xFF                 
    6953     1B28          3FFF                    ADDLW 0xFF                 
    6954     1B29          3FFF                    ADDLW 0xFF                 
    6955     1B2A          3FFF                    ADDLW 0xFF                 
    6956     1B2B          3FFF                    ADDLW 0xFF                 
    6957     1B2C          3FFF                    ADDLW 0xFF                 
    6958     1B2D          3FFF                    ADDLW 0xFF                 
    6959     1B2E          3FFF                    ADDLW 0xFF                 
    6960     1B2F          3FFF                    ADDLW 0xFF                 
    6961     1B30          3FFF                    ADDLW 0xFF                 
    6962     1B31          3FFF                    ADDLW 0xFF                 
    6963     1B32          3FFF                    ADDLW 0xFF                 
    6964     1B33          3FFF                    ADDLW 0xFF                 
    6965     1B34          3FFF                    ADDLW 0xFF                 
    6966     1B35          3FFF                    ADDLW 0xFF                 
    6967     1B36          3FFF                    ADDLW 0xFF                 
    6968     1B37          3FFF                    ADDLW 0xFF                 
    6969     1B38          3FFF                    ADDLW 0xFF                 
    6970     1B39          3FFF                    ADDLW 0xFF                 
    6971     1B3A          3FFF                    ADDLW 0xFF                 
    6972     1B3B          3FFF                    ADDLW 0xFF                 
    6973     1B3C          3FFF                    ADDLW 0xFF                 
    6974     1B3D          3FFF                    ADDLW 0xFF                 
    6975     1B3E          3FFF                    ADDLW 0xFF                 
    6976     1B3F          3FFF                    ADDLW 0xFF                 
    6977     1B40          3FFF                    ADDLW 0xFF                 
    6978     1B41          3FFF                    ADDLW 0xFF                 
    6979     1B42          3FFF                    ADDLW 0xFF                 
    6980     1B43          3FFF                    ADDLW 0xFF                 
    6981     1B44          3FFF                    ADDLW 0xFF                 
    6982     1B45          3FFF                    ADDLW 0xFF                 
    6983     1B46          3FFF                    ADDLW 0xFF                 
    6984     1B47          3FFF                    ADDLW 0xFF                 
    6985     1B48          3FFF                    ADDLW 0xFF                 
    6986     1B49          3FFF                    ADDLW 0xFF                 
    6987     1B4A          3FFF                    ADDLW 0xFF                 
    6988     1B4B          3FFF                    ADDLW 0xFF                 
    6989     1B4C          3FFF                    ADDLW 0xFF                 
    6990     1B4D          3FFF                    ADDLW 0xFF                 
    6991     1B4E          3FFF                    ADDLW 0xFF                 
    6992     1B4F          3FFF                    ADDLW 0xFF                 
    6993     1B50          3FFF                    ADDLW 0xFF                 
    6994     1B51          3FFF                    ADDLW 0xFF                 
    6995     1B52          3FFF                    ADDLW 0xFF                 
    6996     1B53          3FFF                    ADDLW 0xFF                 
    6997     1B54          3FFF                    ADDLW 0xFF                 
    6998     1B55          3FFF                    ADDLW 0xFF                 
    6999     1B56          3FFF                    ADDLW 0xFF                 
    7000     1B57          3FFF                    ADDLW 0xFF                 
    7001     1B58          3FFF                    ADDLW 0xFF                 
    7002     1B59          3FFF                    ADDLW 0xFF                 
    7003     1B5A          3FFF                    ADDLW 0xFF                 
    7004     1B5B          3FFF                    ADDLW 0xFF                 
    7005     1B5C          3FFF                    ADDLW 0xFF                 
    7006     1B5D          3FFF                    ADDLW 0xFF                 
    7007     1B5E          3FFF                    ADDLW 0xFF                 
    7008     1B5F          3FFF                    ADDLW 0xFF                 
    7009     1B60          3FFF                    ADDLW 0xFF                 
    7010     1B61          3FFF                    ADDLW 0xFF                 
    7011     1B62          3FFF                    ADDLW 0xFF                 
    7012     1B63          3FFF                    ADDLW 0xFF                 
    7013     1B64          3FFF                    ADDLW 0xFF                 
    7014     1B65          3FFF                    ADDLW 0xFF                 
    7015     1B66          3FFF                    ADDLW 0xFF                 
    7016     1B67          3FFF                    ADDLW 0xFF                 
    7017     1B68          3FFF                    ADDLW 0xFF                 
    7018     1B69          3FFF                    ADDLW 0xFF                 
    7019     1B6A          3FFF                    ADDLW 0xFF                 
    7020     1B6B          3FFF                    ADDLW 0xFF                 
    7021     1B6C          3FFF                    ADDLW 0xFF                 
    7022     1B6D          3FFF                    ADDLW 0xFF                 
    7023     1B6E          3FFF                    ADDLW 0xFF                 
    7024     1B6F          3FFF                    ADDLW 0xFF                 
    7025     1B70          3FFF                    ADDLW 0xFF                 
    7026     1B71          3FFF                    ADDLW 0xFF                 
    7027     1B72          3FFF                    ADDLW 0xFF                 
    7028     1B73          3FFF                    ADDLW 0xFF                 
    7029     1B74          3FFF                    ADDLW 0xFF                 
    7030     1B75          3FFF                    ADDLW 0xFF                 
    7031     1B76          3FFF                    ADDLW 0xFF                 
    7032     1B77          3FFF                    ADDLW 0xFF                 
    7033     1B78          3FFF                    ADDLW 0xFF                 
    7034     1B79          3FFF                    ADDLW 0xFF                 
    7035     1B7A          3FFF                    ADDLW 0xFF                 
    7036     1B7B          3FFF                    ADDLW 0xFF                 
    7037     1B7C          3FFF                    ADDLW 0xFF                 
    7038     1B7D          3FFF                    ADDLW 0xFF                 
    7039     1B7E          3FFF                    ADDLW 0xFF                 
    7040     1B7F          3FFF                    ADDLW 0xFF                 
    7041     1B80          3FFF                    ADDLW 0xFF                 
    7042     1B81          3FFF                    ADDLW 0xFF                 
    7043     1B82          3FFF                    ADDLW 0xFF                 
    7044     1B83          3FFF                    ADDLW 0xFF                 
    7045     1B84          3FFF                    ADDLW 0xFF                 
    7046     1B85          3FFF                    ADDLW 0xFF                 
    7047     1B86          3FFF                    ADDLW 0xFF                 
    7048     1B87          3FFF                    ADDLW 0xFF                 
    7049     1B88          3FFF                    ADDLW 0xFF                 
    7050     1B89          3FFF                    ADDLW 0xFF                 
    7051     1B8A          3FFF                    ADDLW 0xFF                 
    7052     1B8B          3FFF                    ADDLW 0xFF                 
    7053     1B8C          3FFF                    ADDLW 0xFF                 
    7054     1B8D          3FFF                    ADDLW 0xFF                 
    7055     1B8E          3FFF                    ADDLW 0xFF                 
    7056     1B8F          3FFF                    ADDLW 0xFF                 
    7057     1B90          3FFF                    ADDLW 0xFF                 
    7058     1B91          3FFF                    ADDLW 0xFF                 
    7059     1B92          3FFF                    ADDLW 0xFF                 
    7060     1B93          3FFF                    ADDLW 0xFF                 
    7061     1B94          3FFF                    ADDLW 0xFF                 
    7062     1B95          3FFF                    ADDLW 0xFF                 
    7063     1B96          3FFF                    ADDLW 0xFF                 
    7064     1B97          3FFF                    ADDLW 0xFF                 
    7065     1B98          3FFF                    ADDLW 0xFF                 
    7066     1B99          3FFF                    ADDLW 0xFF                 
    7067     1B9A          3FFF                    ADDLW 0xFF                 
    7068     1B9B          3FFF                    ADDLW 0xFF                 
    7069     1B9C          3FFF                    ADDLW 0xFF                 
    7070     1B9D          3FFF                    ADDLW 0xFF                 
    7071     1B9E          3FFF                    ADDLW 0xFF                 
    7072     1B9F          3FFF                    ADDLW 0xFF                 
    7073     1BA0          3FFF                    ADDLW 0xFF                 
    7074     1BA1          3FFF                    ADDLW 0xFF                 
    7075     1BA2          3FFF                    ADDLW 0xFF                 
    7076     1BA3          3FFF                    ADDLW 0xFF                 
    7077     1BA4          3FFF                    ADDLW 0xFF                 
    7078     1BA5          3FFF                    ADDLW 0xFF                 
    7079     1BA6          3FFF                    ADDLW 0xFF                 
    7080     1BA7          3FFF                    ADDLW 0xFF                 
    7081     1BA8          3FFF                    ADDLW 0xFF                 
    7082     1BA9          3FFF                    ADDLW 0xFF                 
    7083     1BAA          3FFF                    ADDLW 0xFF                 
    7084     1BAB          3FFF                    ADDLW 0xFF                 
    7085     1BAC          3FFF                    ADDLW 0xFF                 
    7086     1BAD          3FFF                    ADDLW 0xFF                 
    7087     1BAE          3FFF                    ADDLW 0xFF                 
    7088     1BAF          3FFF                    ADDLW 0xFF                 
    7089     1BB0          3FFF                    ADDLW 0xFF                 
    7090     1BB1          3FFF                    ADDLW 0xFF                 
    7091     1BB2          3FFF                    ADDLW 0xFF                 
    7092     1BB3          3FFF                    ADDLW 0xFF                 
    7093     1BB4          3FFF                    ADDLW 0xFF                 
    7094     1BB5          3FFF                    ADDLW 0xFF                 
    7095     1BB6          3FFF                    ADDLW 0xFF                 
    7096     1BB7          3FFF                    ADDLW 0xFF                 
    7097     1BB8          3FFF                    ADDLW 0xFF                 
    7098     1BB9          3FFF                    ADDLW 0xFF                 
    7099     1BBA          3FFF                    ADDLW 0xFF                 
    7100     1BBB          3FFF                    ADDLW 0xFF                 
    7101     1BBC          3FFF                    ADDLW 0xFF                 
    7102     1BBD          3FFF                    ADDLW 0xFF                 
    7103     1BBE          3FFF                    ADDLW 0xFF                 
    7104     1BBF          3FFF                    ADDLW 0xFF                 
    7105     1BC0          3FFF                    ADDLW 0xFF                 
    7106     1BC1          3FFF                    ADDLW 0xFF                 
    7107     1BC2          3FFF                    ADDLW 0xFF                 
    7108     1BC3          3FFF                    ADDLW 0xFF                 
    7109     1BC4          3FFF                    ADDLW 0xFF                 
    7110     1BC5          3FFF                    ADDLW 0xFF                 
    7111     1BC6          3FFF                    ADDLW 0xFF                 
    7112     1BC7          3FFF                    ADDLW 0xFF                 
    7113     1BC8          3FFF                    ADDLW 0xFF                 
    7114     1BC9          3FFF                    ADDLW 0xFF                 
    7115     1BCA          3FFF                    ADDLW 0xFF                 
    7116     1BCB          3FFF                    ADDLW 0xFF                 
    7117     1BCC          3FFF                    ADDLW 0xFF                 
    7118     1BCD          3FFF                    ADDLW 0xFF                 
    7119     1BCE          3FFF                    ADDLW 0xFF                 
    7120     1BCF          3FFF                    ADDLW 0xFF                 
    7121     1BD0          3FFF                    ADDLW 0xFF                 
    7122     1BD1          3FFF                    ADDLW 0xFF                 
    7123     1BD2          3FFF                    ADDLW 0xFF                 
    7124     1BD3          3FFF                    ADDLW 0xFF                 
    7125     1BD4          3FFF                    ADDLW 0xFF                 
    7126     1BD5          3FFF                    ADDLW 0xFF                 
    7127     1BD6          3FFF                    ADDLW 0xFF                 
    7128     1BD7          3FFF                    ADDLW 0xFF                 
    7129     1BD8          3FFF                    ADDLW 0xFF                 
    7130     1BD9          3FFF                    ADDLW 0xFF                 
    7131     1BDA          3FFF                    ADDLW 0xFF                 
    7132     1BDB          3FFF                    ADDLW 0xFF                 
    7133     1BDC          3FFF                    ADDLW 0xFF                 
    7134     1BDD          3FFF                    ADDLW 0xFF                 
    7135     1BDE          3FFF                    ADDLW 0xFF                 
    7136     1BDF          3FFF                    ADDLW 0xFF                 
    7137     1BE0          3FFF                    ADDLW 0xFF                 
    7138     1BE1          3FFF                    ADDLW 0xFF                 
    7139     1BE2          3FFF                    ADDLW 0xFF                 
    7140     1BE3          3FFF                    ADDLW 0xFF                 
    7141     1BE4          3FFF                    ADDLW 0xFF                 
    7142     1BE5          3FFF                    ADDLW 0xFF                 
    7143     1BE6          3FFF                    ADDLW 0xFF                 
    7144     1BE7          3FFF                    ADDLW 0xFF                 
    7145     1BE8          3FFF                    ADDLW 0xFF                 
    7146     1BE9          3FFF                    ADDLW 0xFF                 
    7147     1BEA          3FFF                    ADDLW 0xFF                 
    7148     1BEB          3FFF                    ADDLW 0xFF                 
    7149     1BEC          3FFF                    ADDLW 0xFF                 
    7150     1BED          3FFF                    ADDLW 0xFF                 
    7151     1BEE          3FFF                    ADDLW 0xFF                 
    7152     1BEF          3FFF                    ADDLW 0xFF                 
    7153     1BF0          3FFF                    ADDLW 0xFF                 
    7154     1BF1          3FFF                    ADDLW 0xFF                 
    7155     1BF2          3FFF                    ADDLW 0xFF                 
    7156     1BF3          3FFF                    ADDLW 0xFF                 
    7157     1BF4          3FFF                    ADDLW 0xFF                 
    7158     1BF5          3FFF                    ADDLW 0xFF                 
    7159     1BF6          3FFF                    ADDLW 0xFF                 
    7160     1BF7          3FFF                    ADDLW 0xFF                 
    7161     1BF8          3FFF                    ADDLW 0xFF                 
    7162     1BF9          3FFF                    ADDLW 0xFF                 
    7163     1BFA          3FFF                    ADDLW 0xFF                 
    7164     1BFB          3FFF                    ADDLW 0xFF                 
    7165     1BFC          3FFF                    ADDLW 0xFF                 
    7166     1BFD          3FFF                    ADDLW 0xFF                 
    7167     1BFE          3FFF                    ADDLW 0xFF                 
    7168     1BFF          3FFF                    ADDLW 0xFF                 
    7169     1C00          3FFF                    ADDLW 0xFF                 
    7170     1C01          3FFF                    ADDLW 0xFF                 
    7171     1C02          3FFF                    ADDLW 0xFF                 
    7172     1C03          3FFF                    ADDLW 0xFF                 
    7173     1C04          3FFF                    ADDLW 0xFF                 
    7174     1C05          3FFF                    ADDLW 0xFF                 
    7175     1C06          3FFF                    ADDLW 0xFF                 
    7176     1C07          3FFF                    ADDLW 0xFF                 
    7177     1C08          3FFF                    ADDLW 0xFF                 
    7178     1C09          3FFF                    ADDLW 0xFF                 
    7179     1C0A          3FFF                    ADDLW 0xFF                 
    7180     1C0B          3FFF                    ADDLW 0xFF                 
    7181     1C0C          3FFF                    ADDLW 0xFF                 
    7182     1C0D          3FFF                    ADDLW 0xFF                 
    7183     1C0E          3FFF                    ADDLW 0xFF                 
    7184     1C0F          3FFF                    ADDLW 0xFF                 
    7185     1C10          3FFF                    ADDLW 0xFF                 
    7186     1C11          3FFF                    ADDLW 0xFF                 
    7187     1C12          3FFF                    ADDLW 0xFF                 
    7188     1C13          3FFF                    ADDLW 0xFF                 
    7189     1C14          3FFF                    ADDLW 0xFF                 
    7190     1C15          3FFF                    ADDLW 0xFF                 
    7191     1C16          3FFF                    ADDLW 0xFF                 
    7192     1C17          3FFF                    ADDLW 0xFF                 
    7193     1C18          3FFF                    ADDLW 0xFF                 
    7194     1C19          3FFF                    ADDLW 0xFF                 
    7195     1C1A          3FFF                    ADDLW 0xFF                 
    7196     1C1B          3FFF                    ADDLW 0xFF                 
    7197     1C1C          3FFF                    ADDLW 0xFF                 
    7198     1C1D          3FFF                    ADDLW 0xFF                 
    7199     1C1E          3FFF                    ADDLW 0xFF                 
    7200     1C1F          3FFF                    ADDLW 0xFF                 
    7201     1C20          3FFF                    ADDLW 0xFF                 
    7202     1C21          3FFF                    ADDLW 0xFF                 
    7203     1C22          3FFF                    ADDLW 0xFF                 
    7204     1C23          3FFF                    ADDLW 0xFF                 
    7205     1C24          3FFF                    ADDLW 0xFF                 
    7206     1C25          3FFF                    ADDLW 0xFF                 
    7207     1C26          3FFF                    ADDLW 0xFF                 
    7208     1C27          3FFF                    ADDLW 0xFF                 
    7209     1C28          3FFF                    ADDLW 0xFF                 
    7210     1C29          3FFF                    ADDLW 0xFF                 
    7211     1C2A          3FFF                    ADDLW 0xFF                 
    7212     1C2B          3FFF                    ADDLW 0xFF                 
    7213     1C2C          3FFF                    ADDLW 0xFF                 
    7214     1C2D          3FFF                    ADDLW 0xFF                 
    7215     1C2E          3FFF                    ADDLW 0xFF                 
    7216     1C2F          3FFF                    ADDLW 0xFF                 
    7217     1C30          3FFF                    ADDLW 0xFF                 
    7218     1C31          3FFF                    ADDLW 0xFF                 
    7219     1C32          3FFF                    ADDLW 0xFF                 
    7220     1C33          3FFF                    ADDLW 0xFF                 
    7221     1C34          3FFF                    ADDLW 0xFF                 
    7222     1C35          3FFF                    ADDLW 0xFF                 
    7223     1C36          3FFF                    ADDLW 0xFF                 
    7224     1C37          3FFF                    ADDLW 0xFF                 
    7225     1C38          3FFF                    ADDLW 0xFF                 
    7226     1C39          3FFF                    ADDLW 0xFF                 
    7227     1C3A          3FFF                    ADDLW 0xFF                 
    7228     1C3B          3FFF                    ADDLW 0xFF                 
    7229     1C3C          3FFF                    ADDLW 0xFF                 
    7230     1C3D          3FFF                    ADDLW 0xFF                 
    7231     1C3E          3FFF                    ADDLW 0xFF                 
    7232     1C3F          3FFF                    ADDLW 0xFF                 
    7233     1C40          3FFF                    ADDLW 0xFF                 
    7234     1C41          3FFF                    ADDLW 0xFF                 
    7235     1C42          3FFF                    ADDLW 0xFF                 
    7236     1C43          3FFF                    ADDLW 0xFF                 
    7237     1C44          3FFF                    ADDLW 0xFF                 
    7238     1C45          3FFF                    ADDLW 0xFF                 
    7239     1C46          3FFF                    ADDLW 0xFF                 
    7240     1C47          3FFF                    ADDLW 0xFF                 
    7241     1C48          3FFF                    ADDLW 0xFF                 
    7242     1C49          3FFF                    ADDLW 0xFF                 
    7243     1C4A          3FFF                    ADDLW 0xFF                 
    7244     1C4B          3FFF                    ADDLW 0xFF                 
    7245     1C4C          3FFF                    ADDLW 0xFF                 
    7246     1C4D          3FFF                    ADDLW 0xFF                 
    7247     1C4E          3FFF                    ADDLW 0xFF                 
    7248     1C4F          3FFF                    ADDLW 0xFF                 
    7249     1C50          3FFF                    ADDLW 0xFF                 
    7250     1C51          3FFF                    ADDLW 0xFF                 
    7251     1C52          3FFF                    ADDLW 0xFF                 
    7252     1C53          3FFF                    ADDLW 0xFF                 
    7253     1C54          3FFF                    ADDLW 0xFF                 
    7254     1C55          3FFF                    ADDLW 0xFF                 
    7255     1C56          3FFF                    ADDLW 0xFF                 
    7256     1C57          3FFF                    ADDLW 0xFF                 
    7257     1C58          3FFF                    ADDLW 0xFF                 
    7258     1C59          3FFF                    ADDLW 0xFF                 
    7259     1C5A          3FFF                    ADDLW 0xFF                 
    7260     1C5B          3FFF                    ADDLW 0xFF                 
    7261     1C5C          3FFF                    ADDLW 0xFF                 
    7262     1C5D          3FFF                    ADDLW 0xFF                 
    7263     1C5E          3FFF                    ADDLW 0xFF                 
    7264     1C5F          3FFF                    ADDLW 0xFF                 
    7265     1C60          3FFF                    ADDLW 0xFF                 
    7266     1C61          3FFF                    ADDLW 0xFF                 
    7267     1C62          3FFF                    ADDLW 0xFF                 
    7268     1C63          3FFF                    ADDLW 0xFF                 
    7269     1C64          3FFF                    ADDLW 0xFF                 
    7270     1C65          3FFF                    ADDLW 0xFF                 
    7271     1C66          3FFF                    ADDLW 0xFF                 
    7272     1C67          3FFF                    ADDLW 0xFF                 
    7273     1C68          3FFF                    ADDLW 0xFF                 
    7274     1C69          3FFF                    ADDLW 0xFF                 
    7275     1C6A          3FFF                    ADDLW 0xFF                 
    7276     1C6B          3FFF                    ADDLW 0xFF                 
    7277     1C6C          3FFF                    ADDLW 0xFF                 
    7278     1C6D          3FFF                    ADDLW 0xFF                 
    7279     1C6E          3FFF                    ADDLW 0xFF                 
    7280     1C6F          3FFF                    ADDLW 0xFF                 
    7281     1C70          3FFF                    ADDLW 0xFF                 
    7282     1C71          3FFF                    ADDLW 0xFF                 
    7283     1C72          3FFF                    ADDLW 0xFF                 
    7284     1C73          3FFF                    ADDLW 0xFF                 
    7285     1C74          3FFF                    ADDLW 0xFF                 
    7286     1C75          3FFF                    ADDLW 0xFF                 
    7287     1C76          3FFF                    ADDLW 0xFF                 
    7288     1C77          3FFF                    ADDLW 0xFF                 
    7289     1C78          3FFF                    ADDLW 0xFF                 
    7290     1C79          3FFF                    ADDLW 0xFF                 
    7291     1C7A          3FFF                    ADDLW 0xFF                 
    7292     1C7B          3FFF                    ADDLW 0xFF                 
    7293     1C7C          3FFF                    ADDLW 0xFF                 
    7294     1C7D          3FFF                    ADDLW 0xFF                 
    7295     1C7E          3FFF                    ADDLW 0xFF                 
    7296     1C7F          3FFF                    ADDLW 0xFF                 
    7297     1C80          3FFF                    ADDLW 0xFF                 
    7298     1C81          3FFF                    ADDLW 0xFF                 
    7299     1C82          3FFF                    ADDLW 0xFF                 
    7300     1C83          3FFF                    ADDLW 0xFF                 
    7301     1C84          3FFF                    ADDLW 0xFF                 
    7302     1C85          3FFF                    ADDLW 0xFF                 
    7303     1C86          3FFF                    ADDLW 0xFF                 
    7304     1C87          3FFF                    ADDLW 0xFF                 
    7305     1C88          3FFF                    ADDLW 0xFF                 
    7306     1C89          3FFF                    ADDLW 0xFF                 
    7307     1C8A          3FFF                    ADDLW 0xFF                 
    7308     1C8B          3FFF                    ADDLW 0xFF                 
    7309     1C8C          3FFF                    ADDLW 0xFF                 
    7310     1C8D          3FFF                    ADDLW 0xFF                 
    7311     1C8E          3FFF                    ADDLW 0xFF                 
    7312     1C8F          3FFF                    ADDLW 0xFF                 
    7313     1C90          3FFF                    ADDLW 0xFF                 
    7314     1C91          3FFF                    ADDLW 0xFF                 
    7315     1C92          3FFF                    ADDLW 0xFF                 
    7316     1C93          3FFF                    ADDLW 0xFF                 
    7317     1C94          3FFF                    ADDLW 0xFF                 
    7318     1C95          3FFF                    ADDLW 0xFF                 
    7319     1C96          3FFF                    ADDLW 0xFF                 
    7320     1C97          3FFF                    ADDLW 0xFF                 
    7321     1C98          3FFF                    ADDLW 0xFF                 
    7322     1C99          3FFF                    ADDLW 0xFF                 
    7323     1C9A          3FFF                    ADDLW 0xFF                 
    7324     1C9B          3FFF                    ADDLW 0xFF                 
    7325     1C9C          3FFF                    ADDLW 0xFF                 
    7326     1C9D          3FFF                    ADDLW 0xFF                 
    7327     1C9E          3FFF                    ADDLW 0xFF                 
    7328     1C9F          3FFF                    ADDLW 0xFF                 
    7329     1CA0          3FFF                    ADDLW 0xFF                 
    7330     1CA1          3FFF                    ADDLW 0xFF                 
    7331     1CA2          3FFF                    ADDLW 0xFF                 
    7332     1CA3          3FFF                    ADDLW 0xFF                 
    7333     1CA4          3FFF                    ADDLW 0xFF                 
    7334     1CA5          3FFF                    ADDLW 0xFF                 
    7335     1CA6          3FFF                    ADDLW 0xFF                 
    7336     1CA7          3FFF                    ADDLW 0xFF                 
    7337     1CA8          3FFF                    ADDLW 0xFF                 
    7338     1CA9          3FFF                    ADDLW 0xFF                 
    7339     1CAA          3FFF                    ADDLW 0xFF                 
    7340     1CAB          3FFF                    ADDLW 0xFF                 
    7341     1CAC          3FFF                    ADDLW 0xFF                 
    7342     1CAD          3FFF                    ADDLW 0xFF                 
    7343     1CAE          3FFF                    ADDLW 0xFF                 
    7344     1CAF          3FFF                    ADDLW 0xFF                 
    7345     1CB0          3FFF                    ADDLW 0xFF                 
    7346     1CB1          3FFF                    ADDLW 0xFF                 
    7347     1CB2          3FFF                    ADDLW 0xFF                 
    7348     1CB3          3FFF                    ADDLW 0xFF                 
    7349     1CB4          3FFF                    ADDLW 0xFF                 
    7350     1CB5          3FFF                    ADDLW 0xFF                 
    7351     1CB6          3FFF                    ADDLW 0xFF                 
    7352     1CB7          3FFF                    ADDLW 0xFF                 
    7353     1CB8          3FFF                    ADDLW 0xFF                 
    7354     1CB9          3FFF                    ADDLW 0xFF                 
    7355     1CBA          3FFF                    ADDLW 0xFF                 
    7356     1CBB          3FFF                    ADDLW 0xFF                 
    7357     1CBC          3FFF                    ADDLW 0xFF                 
    7358     1CBD          3FFF                    ADDLW 0xFF                 
    7359     1CBE          3FFF                    ADDLW 0xFF                 
    7360     1CBF          3FFF                    ADDLW 0xFF                 
    7361     1CC0          3FFF                    ADDLW 0xFF                 
    7362     1CC1          3FFF                    ADDLW 0xFF                 
    7363     1CC2          3FFF                    ADDLW 0xFF                 
    7364     1CC3          3FFF                    ADDLW 0xFF                 
    7365     1CC4          3FFF                    ADDLW 0xFF                 
    7366     1CC5          3FFF                    ADDLW 0xFF                 
    7367     1CC6          3FFF                    ADDLW 0xFF                 
    7368     1CC7          3FFF                    ADDLW 0xFF                 
    7369     1CC8          3FFF                    ADDLW 0xFF                 
    7370     1CC9          3FFF                    ADDLW 0xFF                 
    7371     1CCA          3FFF                    ADDLW 0xFF                 
    7372     1CCB          3FFF                    ADDLW 0xFF                 
    7373     1CCC          3FFF                    ADDLW 0xFF                 
    7374     1CCD          3FFF                    ADDLW 0xFF                 
    7375     1CCE          3FFF                    ADDLW 0xFF                 
    7376     1CCF          3FFF                    ADDLW 0xFF                 
    7377     1CD0          3FFF                    ADDLW 0xFF                 
    7378     1CD1          3FFF                    ADDLW 0xFF                 
    7379     1CD2          3FFF                    ADDLW 0xFF                 
    7380     1CD3          3FFF                    ADDLW 0xFF                 
    7381     1CD4          3FFF                    ADDLW 0xFF                 
    7382     1CD5          3FFF                    ADDLW 0xFF                 
    7383     1CD6          3FFF                    ADDLW 0xFF                 
    7384     1CD7          3FFF                    ADDLW 0xFF                 
    7385     1CD8          3FFF                    ADDLW 0xFF                 
    7386     1CD9          3FFF                    ADDLW 0xFF                 
    7387     1CDA          3FFF                    ADDLW 0xFF                 
    7388     1CDB          3FFF                    ADDLW 0xFF                 
    7389     1CDC          3FFF                    ADDLW 0xFF                 
    7390     1CDD          3FFF                    ADDLW 0xFF                 
    7391     1CDE          3FFF                    ADDLW 0xFF                 
    7392     1CDF          3FFF                    ADDLW 0xFF                 
    7393     1CE0          3FFF                    ADDLW 0xFF                 
    7394     1CE1          3FFF                    ADDLW 0xFF                 
    7395     1CE2          3FFF                    ADDLW 0xFF                 
    7396     1CE3          3FFF                    ADDLW 0xFF                 
    7397     1CE4          3FFF                    ADDLW 0xFF                 
    7398     1CE5          3FFF                    ADDLW 0xFF                 
    7399     1CE6          3FFF                    ADDLW 0xFF                 
    7400     1CE7          3FFF                    ADDLW 0xFF                 
    7401     1CE8          3FFF                    ADDLW 0xFF                 
    7402     1CE9          3FFF                    ADDLW 0xFF                 
    7403     1CEA          3FFF                    ADDLW 0xFF                 
    7404     1CEB          3FFF                    ADDLW 0xFF                 
    7405     1CEC          3FFF                    ADDLW 0xFF                 
    7406     1CED          3FFF                    ADDLW 0xFF                 
    7407     1CEE          3FFF                    ADDLW 0xFF                 
    7408     1CEF          3FFF                    ADDLW 0xFF                 
    7409     1CF0          3FFF                    ADDLW 0xFF                 
    7410     1CF1          3FFF                    ADDLW 0xFF                 
    7411     1CF2          3FFF                    ADDLW 0xFF                 
    7412     1CF3          3FFF                    ADDLW 0xFF                 
    7413     1CF4          3FFF                    ADDLW 0xFF                 
    7414     1CF5          3FFF                    ADDLW 0xFF                 
    7415     1CF6          3FFF                    ADDLW 0xFF                 
    7416     1CF7          3FFF                    ADDLW 0xFF                 
    7417     1CF8          3FFF                    ADDLW 0xFF                 
    7418     1CF9          3FFF                    ADDLW 0xFF                 
    7419     1CFA          3FFF                    ADDLW 0xFF                 
    7420     1CFB          3FFF                    ADDLW 0xFF                 
    7421     1CFC          3FFF                    ADDLW 0xFF                 
    7422     1CFD          3FFF                    ADDLW 0xFF                 
    7423     1CFE          3FFF                    ADDLW 0xFF                 
    7424     1CFF          3FFF                    ADDLW 0xFF                 
    7425     1D00          3FFF                    ADDLW 0xFF                 
    7426     1D01          3FFF                    ADDLW 0xFF                 
    7427     1D02          3FFF                    ADDLW 0xFF                 
    7428     1D03          3FFF                    ADDLW 0xFF                 
    7429     1D04          3FFF                    ADDLW 0xFF                 
    7430     1D05          3FFF                    ADDLW 0xFF                 
    7431     1D06          3FFF                    ADDLW 0xFF                 
    7432     1D07          3FFF                    ADDLW 0xFF                 
    7433     1D08          3FFF                    ADDLW 0xFF                 
    7434     1D09          3FFF                    ADDLW 0xFF                 
    7435     1D0A          3FFF                    ADDLW 0xFF                 
    7436     1D0B          3FFF                    ADDLW 0xFF                 
    7437     1D0C          3FFF                    ADDLW 0xFF                 
    7438     1D0D          3FFF                    ADDLW 0xFF                 
    7439     1D0E          3FFF                    ADDLW 0xFF                 
    7440     1D0F          3FFF                    ADDLW 0xFF                 
    7441     1D10          3FFF                    ADDLW 0xFF                 
    7442     1D11          3FFF                    ADDLW 0xFF                 
    7443     1D12          3FFF                    ADDLW 0xFF                 
    7444     1D13          3FFF                    ADDLW 0xFF                 
    7445     1D14          3FFF                    ADDLW 0xFF                 
    7446     1D15          3FFF                    ADDLW 0xFF                 
    7447     1D16          3FFF                    ADDLW 0xFF                 
    7448     1D17          3FFF                    ADDLW 0xFF                 
    7449     1D18          3FFF                    ADDLW 0xFF                 
    7450     1D19          3FFF                    ADDLW 0xFF                 
    7451     1D1A          3FFF                    ADDLW 0xFF                 
    7452     1D1B          3FFF                    ADDLW 0xFF                 
    7453     1D1C          3FFF                    ADDLW 0xFF                 
    7454     1D1D          3FFF                    ADDLW 0xFF                 
    7455     1D1E          3FFF                    ADDLW 0xFF                 
    7456     1D1F          3FFF                    ADDLW 0xFF                 
    7457     1D20          3FFF                    ADDLW 0xFF                 
    7458     1D21          3FFF                    ADDLW 0xFF                 
    7459     1D22          3FFF                    ADDLW 0xFF                 
    7460     1D23          3FFF                    ADDLW 0xFF                 
    7461     1D24          3FFF                    ADDLW 0xFF                 
    7462     1D25          3FFF                    ADDLW 0xFF                 
    7463     1D26          3FFF                    ADDLW 0xFF                 
    7464     1D27          3FFF                    ADDLW 0xFF                 
    7465     1D28          3FFF                    ADDLW 0xFF                 
    7466     1D29          3FFF                    ADDLW 0xFF                 
    7467     1D2A          3FFF                    ADDLW 0xFF                 
    7468     1D2B          3FFF                    ADDLW 0xFF                 
    7469     1D2C          3FFF                    ADDLW 0xFF                 
    7470     1D2D          3FFF                    ADDLW 0xFF                 
    7471     1D2E          3FFF                    ADDLW 0xFF                 
    7472     1D2F          3FFF                    ADDLW 0xFF                 
    7473     1D30          3FFF                    ADDLW 0xFF                 
    7474     1D31          3FFF                    ADDLW 0xFF                 
    7475     1D32          3FFF                    ADDLW 0xFF                 
    7476     1D33          3FFF                    ADDLW 0xFF                 
    7477     1D34          3FFF                    ADDLW 0xFF                 
    7478     1D35          3FFF                    ADDLW 0xFF                 
    7479     1D36          3FFF                    ADDLW 0xFF                 
    7480     1D37          3FFF                    ADDLW 0xFF                 
    7481     1D38          3FFF                    ADDLW 0xFF                 
    7482     1D39          3FFF                    ADDLW 0xFF                 
    7483     1D3A          3FFF                    ADDLW 0xFF                 
    7484     1D3B          3FFF                    ADDLW 0xFF                 
    7485     1D3C          3FFF                    ADDLW 0xFF                 
    7486     1D3D          3FFF                    ADDLW 0xFF                 
    7487     1D3E          3FFF                    ADDLW 0xFF                 
    7488     1D3F          3FFF                    ADDLW 0xFF                 
    7489     1D40          3FFF                    ADDLW 0xFF                 
    7490     1D41          3FFF                    ADDLW 0xFF                 
    7491     1D42          3FFF                    ADDLW 0xFF                 
    7492     1D43          3FFF                    ADDLW 0xFF                 
    7493     1D44          3FFF                    ADDLW 0xFF                 
    7494     1D45          3FFF                    ADDLW 0xFF                 
    7495     1D46          3FFF                    ADDLW 0xFF                 
    7496     1D47          3FFF                    ADDLW 0xFF                 
    7497     1D48          3FFF                    ADDLW 0xFF                 
    7498     1D49          3FFF                    ADDLW 0xFF                 
    7499     1D4A          3FFF                    ADDLW 0xFF                 
    7500     1D4B          3FFF                    ADDLW 0xFF                 
    7501     1D4C          3FFF                    ADDLW 0xFF                 
    7502     1D4D          3FFF                    ADDLW 0xFF                 
    7503     1D4E          3FFF                    ADDLW 0xFF                 
    7504     1D4F          3FFF                    ADDLW 0xFF                 
    7505     1D50          3FFF                    ADDLW 0xFF                 
    7506     1D51          3FFF                    ADDLW 0xFF                 
    7507     1D52          3FFF                    ADDLW 0xFF                 
    7508     1D53          3FFF                    ADDLW 0xFF                 
    7509     1D54          3FFF                    ADDLW 0xFF                 
    7510     1D55          3FFF                    ADDLW 0xFF                 
    7511     1D56          3FFF                    ADDLW 0xFF                 
    7512     1D57          3FFF                    ADDLW 0xFF                 
    7513     1D58          3FFF                    ADDLW 0xFF                 
    7514     1D59          3FFF                    ADDLW 0xFF                 
    7515     1D5A          3FFF                    ADDLW 0xFF                 
    7516     1D5B          3FFF                    ADDLW 0xFF                 
    7517     1D5C          3FFF                    ADDLW 0xFF                 
    7518     1D5D          3FFF                    ADDLW 0xFF                 
    7519     1D5E          3FFF                    ADDLW 0xFF                 
    7520     1D5F          3FFF                    ADDLW 0xFF                 
    7521     1D60          3FFF                    ADDLW 0xFF                 
    7522     1D61          3FFF                    ADDLW 0xFF                 
    7523     1D62          3FFF                    ADDLW 0xFF                 
    7524     1D63          3FFF                    ADDLW 0xFF                 
    7525     1D64          3FFF                    ADDLW 0xFF                 
    7526     1D65          3FFF                    ADDLW 0xFF                 
    7527     1D66          3FFF                    ADDLW 0xFF                 
    7528     1D67          3FFF                    ADDLW 0xFF                 
    7529     1D68          3FFF                    ADDLW 0xFF                 
    7530     1D69          3FFF                    ADDLW 0xFF                 
    7531     1D6A          3FFF                    ADDLW 0xFF                 
    7532     1D6B          3FFF                    ADDLW 0xFF                 
    7533     1D6C          3FFF                    ADDLW 0xFF                 
    7534     1D6D          3FFF                    ADDLW 0xFF                 
    7535     1D6E          3FFF                    ADDLW 0xFF                 
    7536     1D6F          3FFF                    ADDLW 0xFF                 
    7537     1D70          3FFF                    ADDLW 0xFF                 
    7538     1D71          3FFF                    ADDLW 0xFF                 
    7539     1D72          3FFF                    ADDLW 0xFF                 
    7540     1D73          3FFF                    ADDLW 0xFF                 
    7541     1D74          3FFF                    ADDLW 0xFF                 
    7542     1D75          3FFF                    ADDLW 0xFF                 
    7543     1D76          3FFF                    ADDLW 0xFF                 
    7544     1D77          3FFF                    ADDLW 0xFF                 
    7545     1D78          3FFF                    ADDLW 0xFF                 
    7546     1D79          3FFF                    ADDLW 0xFF                 
    7547     1D7A          3FFF                    ADDLW 0xFF                 
    7548     1D7B          3FFF                    ADDLW 0xFF                 
    7549     1D7C          3FFF                    ADDLW 0xFF                 
    7550     1D7D          3FFF                    ADDLW 0xFF                 
    7551     1D7E          3FFF                    ADDLW 0xFF                 
    7552     1D7F          3FFF                    ADDLW 0xFF                 
    7553     1D80          3FFF                    ADDLW 0xFF                 
    7554     1D81          3FFF                    ADDLW 0xFF                 
    7555     1D82          3FFF                    ADDLW 0xFF                 
    7556     1D83          3FFF                    ADDLW 0xFF                 
    7557     1D84          3FFF                    ADDLW 0xFF                 
    7558     1D85          3FFF                    ADDLW 0xFF                 
    7559     1D86          3FFF                    ADDLW 0xFF                 
    7560     1D87          3FFF                    ADDLW 0xFF                 
    7561     1D88          3FFF                    ADDLW 0xFF                 
    7562     1D89          3FFF                    ADDLW 0xFF                 
    7563     1D8A          3FFF                    ADDLW 0xFF                 
    7564     1D8B          3FFF                    ADDLW 0xFF                 
    7565     1D8C          3FFF                    ADDLW 0xFF                 
    7566     1D8D          3FFF                    ADDLW 0xFF                 
    7567     1D8E          3FFF                    ADDLW 0xFF                 
    7568     1D8F          3FFF                    ADDLW 0xFF                 
    7569     1D90          3FFF                    ADDLW 0xFF                 
    7570     1D91          3FFF                    ADDLW 0xFF                 
    7571     1D92          3FFF                    ADDLW 0xFF                 
    7572     1D93          3FFF                    ADDLW 0xFF                 
    7573     1D94          3FFF                    ADDLW 0xFF                 
    7574     1D95          3FFF                    ADDLW 0xFF                 
    7575     1D96          3FFF                    ADDLW 0xFF                 
    7576     1D97          3FFF                    ADDLW 0xFF                 
    7577     1D98          3FFF                    ADDLW 0xFF                 
    7578     1D99          3FFF                    ADDLW 0xFF                 
    7579     1D9A          3FFF                    ADDLW 0xFF                 
    7580     1D9B          3FFF                    ADDLW 0xFF                 
    7581     1D9C          3FFF                    ADDLW 0xFF                 
    7582     1D9D          3FFF                    ADDLW 0xFF                 
    7583     1D9E          3FFF                    ADDLW 0xFF                 
    7584     1D9F          3FFF                    ADDLW 0xFF                 
    7585     1DA0          3FFF                    ADDLW 0xFF                 
    7586     1DA1          3FFF                    ADDLW 0xFF                 
    7587     1DA2          3FFF                    ADDLW 0xFF                 
    7588     1DA3          3FFF                    ADDLW 0xFF                 
    7589     1DA4          3FFF                    ADDLW 0xFF                 
    7590     1DA5          3FFF                    ADDLW 0xFF                 
    7591     1DA6          3FFF                    ADDLW 0xFF                 
    7592     1DA7          3FFF                    ADDLW 0xFF                 
    7593     1DA8          3FFF                    ADDLW 0xFF                 
    7594     1DA9          3FFF                    ADDLW 0xFF                 
    7595     1DAA          3FFF                    ADDLW 0xFF                 
    7596     1DAB          3FFF                    ADDLW 0xFF                 
    7597     1DAC          3FFF                    ADDLW 0xFF                 
    7598     1DAD          3FFF                    ADDLW 0xFF                 
    7599     1DAE          3FFF                    ADDLW 0xFF                 
    7600     1DAF          3FFF                    ADDLW 0xFF                 
    7601     1DB0          3FFF                    ADDLW 0xFF                 
    7602     1DB1          3FFF                    ADDLW 0xFF                 
    7603     1DB2          3FFF                    ADDLW 0xFF                 
    7604     1DB3          3FFF                    ADDLW 0xFF                 
    7605     1DB4          3FFF                    ADDLW 0xFF                 
    7606     1DB5          3FFF                    ADDLW 0xFF                 
    7607     1DB6          3FFF                    ADDLW 0xFF                 
    7608     1DB7          3FFF                    ADDLW 0xFF                 
    7609     1DB8          3FFF                    ADDLW 0xFF                 
    7610     1DB9          3FFF                    ADDLW 0xFF                 
    7611     1DBA          3FFF                    ADDLW 0xFF                 
    7612     1DBB          3FFF                    ADDLW 0xFF                 
    7613     1DBC          3FFF                    ADDLW 0xFF                 
    7614     1DBD          3FFF                    ADDLW 0xFF                 
    7615     1DBE          3FFF                    ADDLW 0xFF                 
    7616     1DBF          3FFF                    ADDLW 0xFF                 
    7617     1DC0          3FFF                    ADDLW 0xFF                 
    7618     1DC1          3FFF                    ADDLW 0xFF                 
    7619     1DC2          3FFF                    ADDLW 0xFF                 
    7620     1DC3          3FFF                    ADDLW 0xFF                 
    7621     1DC4          3FFF                    ADDLW 0xFF                 
    7622     1DC5          3FFF                    ADDLW 0xFF                 
    7623     1DC6          3FFF                    ADDLW 0xFF                 
    7624     1DC7          3FFF                    ADDLW 0xFF                 
    7625     1DC8          3FFF                    ADDLW 0xFF                 
    7626     1DC9          3FFF                    ADDLW 0xFF                 
    7627     1DCA          3FFF                    ADDLW 0xFF                 
    7628     1DCB          3FFF                    ADDLW 0xFF                 
    7629     1DCC          3FFF                    ADDLW 0xFF                 
    7630     1DCD          3FFF                    ADDLW 0xFF                 
    7631     1DCE          3FFF                    ADDLW 0xFF                 
    7632     1DCF          3FFF                    ADDLW 0xFF                 
    7633     1DD0          3FFF                    ADDLW 0xFF                 
    7634     1DD1          3FFF                    ADDLW 0xFF                 
    7635     1DD2          3FFF                    ADDLW 0xFF                 
    7636     1DD3          3FFF                    ADDLW 0xFF                 
    7637     1DD4          3FFF                    ADDLW 0xFF                 
    7638     1DD5          3FFF                    ADDLW 0xFF                 
    7639     1DD6          3FFF                    ADDLW 0xFF                 
    7640     1DD7          3FFF                    ADDLW 0xFF                 
    7641     1DD8          3FFF                    ADDLW 0xFF                 
    7642     1DD9          3FFF                    ADDLW 0xFF                 
    7643     1DDA          3FFF                    ADDLW 0xFF                 
    7644     1DDB          3FFF                    ADDLW 0xFF                 
    7645     1DDC          3FFF                    ADDLW 0xFF                 
    7646     1DDD          3FFF                    ADDLW 0xFF                 
    7647     1DDE          3FFF                    ADDLW 0xFF                 
    7648     1DDF          3FFF                    ADDLW 0xFF                 
    7649     1DE0          3FFF                    ADDLW 0xFF                 
    7650     1DE1          3FFF                    ADDLW 0xFF                 
    7651     1DE2          3FFF                    ADDLW 0xFF                 
    7652     1DE3          3FFF                    ADDLW 0xFF                 
    7653     1DE4          3FFF                    ADDLW 0xFF                 
    7654     1DE5          3FFF                    ADDLW 0xFF                 
    7655     1DE6          3FFF                    ADDLW 0xFF                 
    7656     1DE7          3FFF                    ADDLW 0xFF                 
    7657     1DE8          3FFF                    ADDLW 0xFF                 
    7658     1DE9          3FFF                    ADDLW 0xFF                 
    7659     1DEA          3FFF                    ADDLW 0xFF                 
    7660     1DEB          3FFF                    ADDLW 0xFF                 
    7661     1DEC          3FFF                    ADDLW 0xFF                 
    7662     1DED          3FFF                    ADDLW 0xFF                 
    7663     1DEE          3FFF                    ADDLW 0xFF                 
    7664     1DEF          3FFF                    ADDLW 0xFF                 
    7665     1DF0          3FFF                    ADDLW 0xFF                 
    7666     1DF1          3FFF                    ADDLW 0xFF                 
    7667     1DF2          3FFF                    ADDLW 0xFF                 
    7668     1DF3          3FFF                    ADDLW 0xFF                 
    7669     1DF4          3FFF                    ADDLW 0xFF                 
    7670     1DF5          3FFF                    ADDLW 0xFF                 
    7671     1DF6          3FFF                    ADDLW 0xFF                 
    7672     1DF7          3FFF                    ADDLW 0xFF                 
    7673     1DF8          3FFF                    ADDLW 0xFF                 
    7674     1DF9          3FFF                    ADDLW 0xFF                 
    7675     1DFA          3FFF                    ADDLW 0xFF                 
    7676     1DFB          3FFF                    ADDLW 0xFF                 
    7677     1DFC          3FFF                    ADDLW 0xFF                 
    7678     1DFD          3FFF                    ADDLW 0xFF                 
    7679     1DFE          3FFF                    ADDLW 0xFF                 
    7680     1DFF          3FFF                    ADDLW 0xFF                 
    7681     1E00          3FFF                    ADDLW 0xFF                 
    7682     1E01          3FFF                    ADDLW 0xFF                 
    7683     1E02          3FFF                    ADDLW 0xFF                 
    7684     1E03          3FFF                    ADDLW 0xFF                 
    7685     1E04          3FFF                    ADDLW 0xFF                 
    7686     1E05          3FFF                    ADDLW 0xFF                 
    7687     1E06          3FFF                    ADDLW 0xFF                 
    7688     1E07          3FFF                    ADDLW 0xFF                 
    7689     1E08          3FFF                    ADDLW 0xFF                 
    7690     1E09          3FFF                    ADDLW 0xFF                 
    7691     1E0A          3FFF                    ADDLW 0xFF                 
    7692     1E0B          3FFF                    ADDLW 0xFF                 
    7693     1E0C          3FFF                    ADDLW 0xFF                 
    7694     1E0D          3FFF                    ADDLW 0xFF                 
    7695     1E0E          3FFF                    ADDLW 0xFF                 
    7696     1E0F          3FFF                    ADDLW 0xFF                 
    7697     1E10          3FFF                    ADDLW 0xFF                 
    7698     1E11          3FFF                    ADDLW 0xFF                 
    7699     1E12          3FFF                    ADDLW 0xFF                 
    7700     1E13          3FFF                    ADDLW 0xFF                 
    7701     1E14          3FFF                    ADDLW 0xFF                 
    7702     1E15          3FFF                    ADDLW 0xFF                 
    7703     1E16          3FFF                    ADDLW 0xFF                 
    7704     1E17          3FFF                    ADDLW 0xFF                 
    7705     1E18          3FFF                    ADDLW 0xFF                 
    7706     1E19          3FFF                    ADDLW 0xFF                 
    7707     1E1A          3FFF                    ADDLW 0xFF                 
    7708     1E1B          3FFF                    ADDLW 0xFF                 
    7709     1E1C          3FFF                    ADDLW 0xFF                 
    7710     1E1D          3FFF                    ADDLW 0xFF                 
    7711     1E1E          3FFF                    ADDLW 0xFF                 
    7712     1E1F          3FFF                    ADDLW 0xFF                 
    7713     1E20          3FFF                    ADDLW 0xFF                 
    7714     1E21          3FFF                    ADDLW 0xFF                 
    7715     1E22          3FFF                    ADDLW 0xFF                 
    7716     1E23          3FFF                    ADDLW 0xFF                 
    7717     1E24          3FFF                    ADDLW 0xFF                 
    7718     1E25          3FFF                    ADDLW 0xFF                 
    7719     1E26          3FFF                    ADDLW 0xFF                 
    7720     1E27          3FFF                    ADDLW 0xFF                 
    7721     1E28          3FFF                    ADDLW 0xFF                 
    7722     1E29          3FFF                    ADDLW 0xFF                 
    7723     1E2A          3FFF                    ADDLW 0xFF                 
    7724     1E2B          3FFF                    ADDLW 0xFF                 
    7725     1E2C          3FFF                    ADDLW 0xFF                 
    7726     1E2D          3FFF                    ADDLW 0xFF                 
    7727     1E2E          3FFF                    ADDLW 0xFF                 
    7728     1E2F          3FFF                    ADDLW 0xFF                 
    7729     1E30          3FFF                    ADDLW 0xFF                 
    7730     1E31          3FFF                    ADDLW 0xFF                 
    7731     1E32          3FFF                    ADDLW 0xFF                 
    7732     1E33          3FFF                    ADDLW 0xFF                 
    7733     1E34          3FFF                    ADDLW 0xFF                 
    7734     1E35          3FFF                    ADDLW 0xFF                 
    7735     1E36          3FFF                    ADDLW 0xFF                 
    7736     1E37          3FFF                    ADDLW 0xFF                 
    7737     1E38          3FFF                    ADDLW 0xFF                 
    7738     1E39          3FFF                    ADDLW 0xFF                 
    7739     1E3A          3FFF                    ADDLW 0xFF                 
    7740     1E3B          3FFF                    ADDLW 0xFF                 
    7741     1E3C          3FFF                    ADDLW 0xFF                 
    7742     1E3D          3FFF                    ADDLW 0xFF                 
    7743     1E3E          3FFF                    ADDLW 0xFF                 
    7744     1E3F          3FFF                    ADDLW 0xFF                 
    7745     1E40          3FFF                    ADDLW 0xFF                 
    7746     1E41          3FFF                    ADDLW 0xFF                 
    7747     1E42          3FFF                    ADDLW 0xFF                 
    7748     1E43          3FFF                    ADDLW 0xFF                 
    7749     1E44          3FFF                    ADDLW 0xFF                 
    7750     1E45          3FFF                    ADDLW 0xFF                 
    7751     1E46          3FFF                    ADDLW 0xFF                 
    7752     1E47          3FFF                    ADDLW 0xFF                 
    7753     1E48          3FFF                    ADDLW 0xFF                 
    7754     1E49          3FFF                    ADDLW 0xFF                 
    7755     1E4A          3FFF                    ADDLW 0xFF                 
    7756     1E4B          3FFF                    ADDLW 0xFF                 
    7757     1E4C          3FFF                    ADDLW 0xFF                 
    7758     1E4D          3FFF                    ADDLW 0xFF                 
    7759     1E4E          3FFF                    ADDLW 0xFF                 
    7760     1E4F          3FFF                    ADDLW 0xFF                 
    7761     1E50          3FFF                    ADDLW 0xFF                 
    7762     1E51          3FFF                    ADDLW 0xFF                 
    7763     1E52          3FFF                    ADDLW 0xFF                 
    7764     1E53          3FFF                    ADDLW 0xFF                 
    7765     1E54          3FFF                    ADDLW 0xFF                 
    7766     1E55          3FFF                    ADDLW 0xFF                 
    7767     1E56          3FFF                    ADDLW 0xFF                 
    7768     1E57          3FFF                    ADDLW 0xFF                 
    7769     1E58          3FFF                    ADDLW 0xFF                 
    7770     1E59          3FFF                    ADDLW 0xFF                 
    7771     1E5A          3FFF                    ADDLW 0xFF                 
    7772     1E5B          3FFF                    ADDLW 0xFF                 
    7773     1E5C          3FFF                    ADDLW 0xFF                 
    7774     1E5D          3FFF                    ADDLW 0xFF                 
    7775     1E5E          3FFF                    ADDLW 0xFF                 
    7776     1E5F          3FFF                    ADDLW 0xFF                 
    7777     1E60          3FFF                    ADDLW 0xFF                 
    7778     1E61          3FFF                    ADDLW 0xFF                 
    7779     1E62          3FFF                    ADDLW 0xFF                 
    7780     1E63          3FFF                    ADDLW 0xFF                 
    7781     1E64          3FFF                    ADDLW 0xFF                 
    7782     1E65          3FFF                    ADDLW 0xFF                 
    7783     1E66          3FFF                    ADDLW 0xFF                 
    7784     1E67          3FFF                    ADDLW 0xFF                 
    7785     1E68          3FFF                    ADDLW 0xFF                 
    7786     1E69          3FFF                    ADDLW 0xFF                 
    7787     1E6A          3FFF                    ADDLW 0xFF                 
    7788     1E6B          3FFF                    ADDLW 0xFF                 
    7789     1E6C          3FFF                    ADDLW 0xFF                 
    7790     1E6D          3FFF                    ADDLW 0xFF                 
    7791     1E6E          3FFF                    ADDLW 0xFF                 
    7792     1E6F          3FFF                    ADDLW 0xFF                 
    7793     1E70          3FFF                    ADDLW 0xFF                 
    7794     1E71          3FFF                    ADDLW 0xFF                 
    7795     1E72          3FFF                    ADDLW 0xFF                 
    7796     1E73          3FFF                    ADDLW 0xFF                 
    7797     1E74          3FFF                    ADDLW 0xFF                 
    7798     1E75          3FFF                    ADDLW 0xFF                 
    7799     1E76          3FFF                    ADDLW 0xFF                 
    7800     1E77          3FFF                    ADDLW 0xFF                 
    7801     1E78          3FFF                    ADDLW 0xFF                 
    7802     1E79          3FFF                    ADDLW 0xFF                 
    7803     1E7A          3FFF                    ADDLW 0xFF                 
    7804     1E7B          3FFF                    ADDLW 0xFF                 
    7805     1E7C          3FFF                    ADDLW 0xFF                 
    7806     1E7D          3FFF                    ADDLW 0xFF                 
    7807     1E7E          3FFF                    ADDLW 0xFF                 
    7808     1E7F          3FFF                    ADDLW 0xFF                 
    7809     1E80          3FFF                    ADDLW 0xFF                 
    7810     1E81          3FFF                    ADDLW 0xFF                 
    7811     1E82          3FFF                    ADDLW 0xFF                 
    7812     1E83          3FFF                    ADDLW 0xFF                 
    7813     1E84          3FFF                    ADDLW 0xFF                 
    7814     1E85          3FFF                    ADDLW 0xFF                 
    7815     1E86          3FFF                    ADDLW 0xFF                 
    7816     1E87          3FFF                    ADDLW 0xFF                 
    7817     1E88          3FFF                    ADDLW 0xFF                 
    7818     1E89          3FFF                    ADDLW 0xFF                 
    7819     1E8A          3FFF                    ADDLW 0xFF                 
    7820     1E8B          3FFF                    ADDLW 0xFF                 
    7821     1E8C          3FFF                    ADDLW 0xFF                 
    7822     1E8D          3FFF                    ADDLW 0xFF                 
    7823     1E8E          3FFF                    ADDLW 0xFF                 
    7824     1E8F          3FFF                    ADDLW 0xFF                 
    7825     1E90          3FFF                    ADDLW 0xFF                 
    7826     1E91          3FFF                    ADDLW 0xFF                 
    7827     1E92          3FFF                    ADDLW 0xFF                 
    7828     1E93          3FFF                    ADDLW 0xFF                 
    7829     1E94          3FFF                    ADDLW 0xFF                 
    7830     1E95          3FFF                    ADDLW 0xFF                 
    7831     1E96          3FFF                    ADDLW 0xFF                 
    7832     1E97          3FFF                    ADDLW 0xFF                 
    7833     1E98          3FFF                    ADDLW 0xFF                 
    7834     1E99          3FFF                    ADDLW 0xFF                 
    7835     1E9A          3FFF                    ADDLW 0xFF                 
    7836     1E9B          3FFF                    ADDLW 0xFF                 
    7837     1E9C          3FFF                    ADDLW 0xFF                 
    7838     1E9D          3FFF                    ADDLW 0xFF                 
    7839     1E9E          3FFF                    ADDLW 0xFF                 
    7840     1E9F          3FFF                    ADDLW 0xFF                 
    7841     1EA0          3FFF                    ADDLW 0xFF                 
    7842     1EA1          3FFF                    ADDLW 0xFF                 
    7843     1EA2          3FFF                    ADDLW 0xFF                 
    7844     1EA3          3FFF                    ADDLW 0xFF                 
    7845     1EA4          3FFF                    ADDLW 0xFF                 
    7846     1EA5          3FFF                    ADDLW 0xFF                 
    7847     1EA6          3FFF                    ADDLW 0xFF                 
    7848     1EA7          3FFF                    ADDLW 0xFF                 
    7849     1EA8          3FFF                    ADDLW 0xFF                 
    7850     1EA9          3FFF                    ADDLW 0xFF                 
    7851     1EAA          3FFF                    ADDLW 0xFF                 
    7852     1EAB          3FFF                    ADDLW 0xFF                 
    7853     1EAC          3FFF                    ADDLW 0xFF                 
    7854     1EAD          3FFF                    ADDLW 0xFF                 
    7855     1EAE          3FFF                    ADDLW 0xFF                 
    7856     1EAF          3FFF                    ADDLW 0xFF                 
    7857     1EB0          3FFF                    ADDLW 0xFF                 
    7858     1EB1          3FFF                    ADDLW 0xFF                 
    7859     1EB2          3FFF                    ADDLW 0xFF                 
    7860     1EB3          3FFF                    ADDLW 0xFF                 
    7861     1EB4          3FFF                    ADDLW 0xFF                 
    7862     1EB5          3FFF                    ADDLW 0xFF                 
    7863     1EB6          3FFF                    ADDLW 0xFF                 
    7864     1EB7          3FFF                    ADDLW 0xFF                 
    7865     1EB8          3FFF                    ADDLW 0xFF                 
    7866     1EB9          3FFF                    ADDLW 0xFF                 
    7867     1EBA          3FFF                    ADDLW 0xFF                 
    7868     1EBB          3FFF                    ADDLW 0xFF                 
    7869     1EBC          3FFF                    ADDLW 0xFF                 
    7870     1EBD          3FFF                    ADDLW 0xFF                 
    7871     1EBE          3FFF                    ADDLW 0xFF                 
    7872     1EBF          3FFF                    ADDLW 0xFF                 
    7873     1EC0          3FFF                    ADDLW 0xFF                 
    7874     1EC1          3FFF                    ADDLW 0xFF                 
    7875     1EC2          3FFF                    ADDLW 0xFF                 
    7876     1EC3          3FFF                    ADDLW 0xFF                 
    7877     1EC4          3FFF                    ADDLW 0xFF                 
    7878     1EC5          3FFF                    ADDLW 0xFF                 
    7879     1EC6          3FFF                    ADDLW 0xFF                 
    7880     1EC7          3FFF                    ADDLW 0xFF                 
    7881     1EC8          3FFF                    ADDLW 0xFF                 
    7882     1EC9          3FFF                    ADDLW 0xFF                 
    7883     1ECA          3FFF                    ADDLW 0xFF                 
    7884     1ECB          3FFF                    ADDLW 0xFF                 
    7885     1ECC          3FFF                    ADDLW 0xFF                 
    7886     1ECD          3FFF                    ADDLW 0xFF                 
    7887     1ECE          3FFF                    ADDLW 0xFF                 
    7888     1ECF          3FFF                    ADDLW 0xFF                 
    7889     1ED0          3FFF                    ADDLW 0xFF                 
    7890     1ED1          3FFF                    ADDLW 0xFF                 
    7891     1ED2          3FFF                    ADDLW 0xFF                 
    7892     1ED3          3FFF                    ADDLW 0xFF                 
    7893     1ED4          3FFF                    ADDLW 0xFF                 
    7894     1ED5          3FFF                    ADDLW 0xFF                 
    7895     1ED6          3FFF                    ADDLW 0xFF                 
    7896     1ED7          3FFF                    ADDLW 0xFF                 
    7897     1ED8          3FFF                    ADDLW 0xFF                 
    7898     1ED9          3FFF                    ADDLW 0xFF                 
    7899     1EDA          3FFF                    ADDLW 0xFF                 
    7900     1EDB          3FFF                    ADDLW 0xFF                 
    7901     1EDC          3FFF                    ADDLW 0xFF                 
    7902     1EDD          3FFF                    ADDLW 0xFF                 
    7903     1EDE          3FFF                    ADDLW 0xFF                 
    7904     1EDF          3FFF                    ADDLW 0xFF                 
    7905     1EE0          3FFF                    ADDLW 0xFF                 
    7906     1EE1          3FFF                    ADDLW 0xFF                 
    7907     1EE2          3FFF                    ADDLW 0xFF                 
    7908     1EE3          3FFF                    ADDLW 0xFF                 
    7909     1EE4          3FFF                    ADDLW 0xFF                 
    7910     1EE5          3FFF                    ADDLW 0xFF                 
    7911     1EE6          3FFF                    ADDLW 0xFF                 
    7912     1EE7          3FFF                    ADDLW 0xFF                 
    7913     1EE8          3FFF                    ADDLW 0xFF                 
    7914     1EE9          3FFF                    ADDLW 0xFF                 
    7915     1EEA          3FFF                    ADDLW 0xFF                 
    7916     1EEB          3FFF                    ADDLW 0xFF                 
    7917     1EEC          3FFF                    ADDLW 0xFF                 
    7918     1EED          3FFF                    ADDLW 0xFF                 
    7919     1EEE          3FFF                    ADDLW 0xFF                 
    7920     1EEF          3FFF                    ADDLW 0xFF                 
    7921     1EF0          3FFF                    ADDLW 0xFF                 
    7922     1EF1          3FFF                    ADDLW 0xFF                 
    7923     1EF2          3FFF                    ADDLW 0xFF                 
    7924     1EF3          3FFF                    ADDLW 0xFF                 
    7925     1EF4          3FFF                    ADDLW 0xFF                 
    7926     1EF5          3FFF                    ADDLW 0xFF                 
    7927     1EF6          3FFF                    ADDLW 0xFF                 
    7928     1EF7          3FFF                    ADDLW 0xFF                 
    7929     1EF8          3FFF                    ADDLW 0xFF                 
    7930     1EF9          3FFF                    ADDLW 0xFF                 
    7931     1EFA          3FFF                    ADDLW 0xFF                 
    7932     1EFB          3FFF                    ADDLW 0xFF                 
    7933     1EFC          3FFF                    ADDLW 0xFF                 
    7934     1EFD          3FFF                    ADDLW 0xFF                 
    7935     1EFE          3FFF                    ADDLW 0xFF                 
    7936     1EFF          3FFF                    ADDLW 0xFF                 
    7937     1F00          3FFF                    ADDLW 0xFF                 
    7938     1F01          3FFF                    ADDLW 0xFF                 
    7939     1F02          3FFF                    ADDLW 0xFF                 
    7940     1F03          3FFF                    ADDLW 0xFF                 
    7941     1F04          3FFF                    ADDLW 0xFF                 
    7942     1F05          3FFF                    ADDLW 0xFF                 
    7943     1F06          3FFF                    ADDLW 0xFF                 
    7944     1F07          3FFF                    ADDLW 0xFF                 
    7945     1F08          3FFF                    ADDLW 0xFF                 
    7946     1F09          3FFF                    ADDLW 0xFF                 
    7947     1F0A          3FFF                    ADDLW 0xFF                 
    7948     1F0B          3FFF                    ADDLW 0xFF                 
    7949     1F0C          3FFF                    ADDLW 0xFF                 
    7950     1F0D          3FFF                    ADDLW 0xFF                 
    7951     1F0E          3FFF                    ADDLW 0xFF                 
    7952     1F0F          3FFF                    ADDLW 0xFF                 
    7953     1F10          3FFF                    ADDLW 0xFF                 
    7954     1F11          3FFF                    ADDLW 0xFF                 
    7955     1F12          3FFF                    ADDLW 0xFF                 
    7956     1F13          3FFF                    ADDLW 0xFF                 
    7957     1F14          3FFF                    ADDLW 0xFF                 
    7958     1F15          3FFF                    ADDLW 0xFF                 
    7959     1F16          3FFF                    ADDLW 0xFF                 
    7960     1F17          3FFF                    ADDLW 0xFF                 
    7961     1F18          3FFF                    ADDLW 0xFF                 
    7962     1F19          3FFF                    ADDLW 0xFF                 
    7963     1F1A          3FFF                    ADDLW 0xFF                 
    7964     1F1B          3FFF                    ADDLW 0xFF                 
    7965     1F1C          3FFF                    ADDLW 0xFF                 
    7966     1F1D          3FFF                    ADDLW 0xFF                 
    7967     1F1E          3FFF                    ADDLW 0xFF                 
    7968     1F1F          3FFF                    ADDLW 0xFF                 
    7969     1F20          3FFF                    ADDLW 0xFF                 
    7970     1F21          3FFF                    ADDLW 0xFF                 
    7971     1F22          3FFF                    ADDLW 0xFF                 
    7972     1F23          3FFF                    ADDLW 0xFF                 
    7973     1F24          3FFF                    ADDLW 0xFF                 
    7974     1F25          3FFF                    ADDLW 0xFF                 
    7975     1F26          3FFF                    ADDLW 0xFF                 
    7976     1F27          3FFF                    ADDLW 0xFF                 
    7977     1F28          3FFF                    ADDLW 0xFF                 
    7978     1F29          3FFF                    ADDLW 0xFF                 
    7979     1F2A          3FFF                    ADDLW 0xFF                 
    7980     1F2B          3FFF                    ADDLW 0xFF                 
    7981     1F2C          3FFF                    ADDLW 0xFF                 
    7982     1F2D          3FFF                    ADDLW 0xFF                 
    7983     1F2E          3FFF                    ADDLW 0xFF                 
    7984     1F2F          3FFF                    ADDLW 0xFF                 
    7985     1F30          3FFF                    ADDLW 0xFF                 
    7986     1F31          3FFF                    ADDLW 0xFF                 
    7987     1F32          3FFF                    ADDLW 0xFF                 
    7988     1F33          3FFF                    ADDLW 0xFF                 
    7989     1F34          3FFF                    ADDLW 0xFF                 
    7990     1F35          3FFF                    ADDLW 0xFF                 
    7991     1F36          3FFF                    ADDLW 0xFF                 
    7992     1F37          3FFF                    ADDLW 0xFF                 
    7993     1F38          3FFF                    ADDLW 0xFF                 
    7994     1F39          3FFF                    ADDLW 0xFF                 
    7995     1F3A          3FFF                    ADDLW 0xFF                 
    7996     1F3B          3FFF                    ADDLW 0xFF                 
    7997     1F3C          3FFF                    ADDLW 0xFF                 
    7998     1F3D          3FFF                    ADDLW 0xFF                 
    7999     1F3E          3FFF                    ADDLW 0xFF                 
    8000     1F3F          3FFF                    ADDLW 0xFF                 
    8001     1F40          3FFF                    ADDLW 0xFF                 
    8002     1F41          3FFF                    ADDLW 0xFF                 
    8003     1F42          3FFF                    ADDLW 0xFF                 
    8004     1F43          3FFF                    ADDLW 0xFF                 
    8005     1F44          3FFF                    ADDLW 0xFF                 
    8006     1F45          3FFF                    ADDLW 0xFF                 
    8007     1F46          3FFF                    ADDLW 0xFF                 
    8008     1F47          3FFF                    ADDLW 0xFF                 
    8009     1F48          3FFF                    ADDLW 0xFF                 
    8010     1F49          3FFF                    ADDLW 0xFF                 
    8011     1F4A          3FFF                    ADDLW 0xFF                 
    8012     1F4B          3FFF                    ADDLW 0xFF                 
    8013     1F4C          3FFF                    ADDLW 0xFF                 
    8014     1F4D          3FFF                    ADDLW 0xFF                 
    8015     1F4E          3FFF                    ADDLW 0xFF                 
    8016     1F4F          3FFF                    ADDLW 0xFF                 
    8017     1F50          3FFF                    ADDLW 0xFF                 
    8018     1F51          3FFF                    ADDLW 0xFF                 
    8019     1F52          3FFF                    ADDLW 0xFF                 
    8020     1F53          3FFF                    ADDLW 0xFF                 
    8021     1F54          3FFF                    ADDLW 0xFF                 
    8022     1F55          3FFF                    ADDLW 0xFF                 
    8023     1F56          3FFF                    ADDLW 0xFF                 
    8024     1F57          3FFF                    ADDLW 0xFF                 
    8025     1F58          3FFF                    ADDLW 0xFF                 
    8026     1F59          3FFF                    ADDLW 0xFF                 
    8027     1F5A          3FFF                    ADDLW 0xFF                 
    8028     1F5B          3FFF                    ADDLW 0xFF                 
    8029     1F5C          3FFF                    ADDLW 0xFF                 
    8030     1F5D          3FFF                    ADDLW 0xFF                 
    8031     1F5E          3FFF                    ADDLW 0xFF                 
    8032     1F5F          3FFF                    ADDLW 0xFF                 
    8033     1F60          3FFF                    ADDLW 0xFF                 
    8034     1F61          3FFF                    ADDLW 0xFF                 
    8035     1F62          3FFF                    ADDLW 0xFF                 
    8036     1F63          3FFF                    ADDLW 0xFF                 
    8037     1F64          3FFF                    ADDLW 0xFF                 
    8038     1F65          3FFF                    ADDLW 0xFF                 
    8039     1F66          3FFF                    ADDLW 0xFF                 
    8040     1F67          3FFF                    ADDLW 0xFF                 
    8041     1F68          3FFF                    ADDLW 0xFF                 
    8042     1F69          3FFF                    ADDLW 0xFF                 
    8043     1F6A          3FFF                    ADDLW 0xFF                 
    8044     1F6B          3FFF                    ADDLW 0xFF                 
    8045     1F6C          3FFF                    ADDLW 0xFF                 
    8046     1F6D          3FFF                    ADDLW 0xFF                 
    8047     1F6E          3FFF                    ADDLW 0xFF                 
    8048     1F6F          3FFF                    ADDLW 0xFF                 
    8049     1F70          3FFF                    ADDLW 0xFF                 
    8050     1F71          3FFF                    ADDLW 0xFF                 
    8051     1F72          3FFF                    ADDLW 0xFF                 
    8052     1F73          3FFF                    ADDLW 0xFF                 
    8053     1F74          3FFF                    ADDLW 0xFF                 
    8054     1F75          3FFF                    ADDLW 0xFF                 
    8055     1F76          3FFF                    ADDLW 0xFF                 
    8056     1F77          3FFF                    ADDLW 0xFF                 
    8057     1F78          3FFF                    ADDLW 0xFF                 
    8058     1F79          3FFF                    ADDLW 0xFF                 
    8059     1F7A          3FFF                    ADDLW 0xFF                 
    8060     1F7B          3FFF                    ADDLW 0xFF                 
    8061     1F7C          3FFF                    ADDLW 0xFF                 
    8062     1F7D          3FFF                    ADDLW 0xFF                 
    8063     1F7E          3FFF                    ADDLW 0xFF                 
    8064     1F7F          3FFF                    ADDLW 0xFF                 
    8065     1F80          3FFF                    ADDLW 0xFF                 
    8066     1F81          3FFF                    ADDLW 0xFF                 
    8067     1F82          3FFF                    ADDLW 0xFF                 
    8068     1F83          3FFF                    ADDLW 0xFF                 
    8069     1F84          3FFF                    ADDLW 0xFF                 
    8070     1F85          3FFF                    ADDLW 0xFF                 
    8071     1F86          3FFF                    ADDLW 0xFF                 
    8072     1F87          3FFF                    ADDLW 0xFF                 
    8073     1F88          3FFF                    ADDLW 0xFF                 
    8074     1F89          3FFF                    ADDLW 0xFF                 
    8075     1F8A          3FFF                    ADDLW 0xFF                 
    8076     1F8B          3FFF                    ADDLW 0xFF                 
    8077     1F8C          3FFF                    ADDLW 0xFF                 
    8078     1F8D          3FFF                    ADDLW 0xFF                 
    8079     1F8E          3FFF                    ADDLW 0xFF                 
    8080     1F8F          3FFF                    ADDLW 0xFF                 
    8081     1F90          3FFF                    ADDLW 0xFF                 
    8082     1F91          3FFF                    ADDLW 0xFF                 
    8083     1F92          3FFF                    ADDLW 0xFF                 
    8084     1F93          3FFF                    ADDLW 0xFF                 
    8085     1F94          3FFF                    ADDLW 0xFF                 
    8086     1F95          3FFF                    ADDLW 0xFF                 
    8087     1F96          3FFF                    ADDLW 0xFF                 
    8088     1F97          3FFF                    ADDLW 0xFF                 
    8089     1F98          3FFF                    ADDLW 0xFF                 
    8090     1F99          3FFF                    ADDLW 0xFF                 
    8091     1F9A          3FFF                    ADDLW 0xFF                 
    8092     1F9B          3FFF                    ADDLW 0xFF                 
    8093     1F9C          3FFF                    ADDLW 0xFF                 
    8094     1F9D          3FFF                    ADDLW 0xFF                 
    8095     1F9E          3FFF                    ADDLW 0xFF                 
    8096     1F9F          3FFF                    ADDLW 0xFF                 
    8097     1FA0          3FFF                    ADDLW 0xFF                 
    8098     1FA1          3FFF                    ADDLW 0xFF                 
    8099     1FA2          3FFF                    ADDLW 0xFF                 
    8100     1FA3          3FFF                    ADDLW 0xFF                 
    8101     1FA4          3FFF                    ADDLW 0xFF                 
    8102     1FA5          3FFF                    ADDLW 0xFF                 
    8103     1FA6          3FFF                    ADDLW 0xFF                 
    8104     1FA7          3FFF                    ADDLW 0xFF                 
    8105     1FA8          3FFF                    ADDLW 0xFF                 
    8106     1FA9          3FFF                    ADDLW 0xFF                 
    8107     1FAA          3FFF                    ADDLW 0xFF                 
    8108     1FAB          3FFF                    ADDLW 0xFF                 
    8109     1FAC          3FFF                    ADDLW 0xFF                 
    8110     1FAD          3FFF                    ADDLW 0xFF                 
    8111     1FAE          3FFF                    ADDLW 0xFF                 
    8112     1FAF          3FFF                    ADDLW 0xFF                 
    8113     1FB0          3FFF                    ADDLW 0xFF                 
    8114     1FB1          3FFF                    ADDLW 0xFF                 
    8115     1FB2          3FFF                    ADDLW 0xFF                 
    8116     1FB3          3FFF                    ADDLW 0xFF                 
    8117     1FB4          3FFF                    ADDLW 0xFF                 
    8118     1FB5          3FFF                    ADDLW 0xFF                 
    8119     1FB6          3FFF                    ADDLW 0xFF                 
    8120     1FB7          3FFF                    ADDLW 0xFF                 
    8121     1FB8          3FFF                    ADDLW 0xFF                 
    8122     1FB9          3FFF                    ADDLW 0xFF                 
    8123     1FBA          3FFF                    ADDLW 0xFF                 
    8124     1FBB          3FFF                    ADDLW 0xFF                 
    8125     1FBC          3FFF                    ADDLW 0xFF                 
    8126     1FBD          3FFF                    ADDLW 0xFF                 
    8127     1FBE          3FFF                    ADDLW 0xFF                 
    8128     1FBF          3FFF                    ADDLW 0xFF                 
    8129     1FC0          0028                                               
    8130     1FC1          0063                    SLEEP                      
    8131     1FC2          0029                                               
    8132     1FC3          0020                    NOP                        
    8133     1FC4          0042                                               
    8134     1FC5          0065                    TRIS PORTA                 
    8135     1FC6          0077                    TRIS PORTC                 
    8136     1FC7          0061                                               
    8137     1FC8          0074                    CLRWDT                     
    8138     1FC9          006F                                               
    8139     1FCA          0072                    OPTION                     
    8140     1FCB          0020                    NOP                        
    8141     1FCC          004C                                               
    8142     1FCD          0074                    CLRWDT                     
    8143     1FCE          0064                    CLRWDT                     
    8144     1FCF          0020                    NOP                        
    8145     1FD0          0032                                               
    8146     1FD1          0030                    NOP                        
    8147     1FD2          0030                    NOP                        
    8148     1FD3          0037                                               
    8149     1FD4          0020                    NOP                        
    8150     1FD5          0032                                               
    8151     1FD6          0033                                               
    8152     1FD7          002F                                               
    8153     1FD8          0030                    NOP                        
    8154     1FD9          0036                                               
    8155     1FDA          002F                                               
    8156     1FDB          0030                    NOP                        
    8157     1FDC          0038                                               
    8158     1FDD          0020                    NOP                        
    8159     1FDE          0038                                               
    8160     1FDF          0032                                               
    8161     1FE0          0032                                               
    8162     1FE1          0031                                               
    8163     1FE2          0030                    NOP                        
    8164     1FE3          002D                                               
    8165     1FE4          0030                    NOP                        
    8166     1FE5          0031                                               
    8167     1FE6          002D                                               
    8168     1FE7          0030                    NOP                        
    8169     1FE8          0034                                               
    8170     1FE9          00FF                    MOVWF 0x7F                 
    8171     1FEA          3FFF                    ADDLW 0xFF                 
    8172     1FEB          3FFF                    ADDLW 0xFF                 
    8173     1FEC          3FFF                    ADDLW 0xFF                 
    8174     1FED          3FFF                    ADDLW 0xFF                 
    8175     1FEE          3FFF                    ADDLW 0xFF                 
    8176     1FEF          3FFF                    ADDLW 0xFF                 
    8177     1FF0          3FFF                    ADDLW 0xFF                 
    8178     1FF1          3FFF                    ADDLW 0xFF                 
    8179     1FF2          3FFF                    ADDLW 0xFF                 
    8180     1FF3          3FFF                    ADDLW 0xFF                 
    8181     1FF4          3FFF                    ADDLW 0xFF                 
    8182     1FF5          3FFF                    ADDLW 0xFF                 
    8183     1FF6          3FFF                    ADDLW 0xFF                 
    8184     1FF7          3FFF                    ADDLW 0xFF                 
    8185     1FF8          3FFF                    ADDLW 0xFF                 
    8186     1FF9          3FFF                    ADDLW 0xFF                 
    8187     1FFA          3FFF                    ADDLW 0xFF                 
    8188     1FFB          3FFF                    ADDLW 0xFF                 
    8189     1FFC          3FFF                    ADDLW 0xFF                 
    8190     1FFD          3FFF                    ADDLW 0xFF                 
    8191     1FFE          3FFF                    ADDLW 0xFF                 
    8192     1FFF          3FFF                    ADDLW 0xFF                 
